Archive member included because of file (symbol)

contiki-wismote.a(contiki-wismote)
                              obj_wismote/contiki-wismote-main.o (init_platform)
contiki-wismote.a(button-sensor.o)
                              contiki-wismote.a(contiki-wismote) (button_sensor)
contiki-wismote.a(xmem.o)     obj_wismote/contiki-wismote-main.o (xmem_init)
contiki-wismote.a(node-id.o)  obj_wismote/contiki-wismote-main.o (node_id_restore)
contiki-wismote.a(sensors.o)  contiki-wismote.a(button-sensor.o) (sensors_changed)
contiki-wismote.a(cc2520.o)   obj_wismote/contiki-wismote-main.o (cc2520_set_channel)
contiki-wismote.a(cc2520-arch.o)
                              contiki-wismote.a(cc2520.o) (cc2520_arch_init)
contiki-wismote.a(uart1.o)    obj_wismote/contiki-wismote-main.o (uart1_active)
contiki-wismote.a(uart1-putchar.o)
                              udp-server.co (putchar)
contiki-wismote.a(msp430.o)   obj_wismote/contiki-wismote-main.o (msp430_cpu_init)
contiki-wismote.a(clock.o)    obj_wismote/contiki-wismote-main.o (clock_init)
contiki-wismote.a(leds.o)     obj_wismote/contiki-wismote-main.o (leds_init)
contiki-wismote.a(leds-arch.o)
                              contiki-wismote.a(leds.o) (leds_arch_init)
contiki-wismote.a(watchdog.o)
                              obj_wismote/contiki-wismote-main.o (watchdog_start)
contiki-wismote.a(rtimer-arch.o)
                              obj_wismote/contiki-wismote-main.o (rtimer_arch_now)
contiki-wismote.a(autostart.o)
                              obj_wismote/contiki-wismote-main.o (autostart_start)
contiki-wismote.a(battery_kinetic)
                              udp-server.co (battery_start)
contiki-wismote.a(compower.o)
                              contiki-wismote.a(battery_kinetic) (compower_idle_activity)
contiki-wismote.a(ctimer.o)   obj_wismote/contiki-wismote-main.o (ctimer_init)
contiki-wismote.a(energest.o)
                              obj_wismote/contiki-wismote-main.o (energest_init)
contiki-wismote.a(etimer.o)   contiki-wismote.a(clock.o) (etimer_request_poll)
contiki-wismote.a(instance_pool.o)
                              udp-server.co (start_pool)
contiki-wismote.a(process.o)  udp-server.co (process_current)
contiki-wismote.a(rtimer.o)   obj_wismote/contiki-wismote-main.o (rtimer_init)
contiki-wismote.a(timer.o)    contiki-wismote.a(button-sensor.o) (timer_set)
contiki-wismote.a(list.o)     contiki-wismote.a(ctimer.o) (list_init)
contiki-wismote.a(random.o)   obj_wismote/contiki-wismote-main.o (random_init)
contiki-wismote.a(sicslowpan.o)
                              obj_wismote/contiki-wismote-main.o (sicslowpan_driver)
contiki-wismote.a(uip6.o)     udp-server.co (uip_aligned_buf)
contiki-wismote.a(uip-ds6.o)  contiki-wismote.a(uip6.o) (uip_ds6_is_addr_onlink)
contiki-wismote.a(uip-ds6-nbr.o)
                              contiki-wismote.a(uip-ds6.o) (uip_ds6_neighbors_init)
contiki-wismote.a(uip-ds6-route.o)
                              contiki-wismote.a(uip-ds6.o) (uip_ds6_route_init)
contiki-wismote.a(uip-icmp6.o)
                              contiki-wismote.a(uip6.o) (uip_icmp6_input)
contiki-wismote.a(uip-nd6.o)  contiki-wismote.a(uip6.o) (uip_nd6_init)
contiki-wismote.a(tcpip.o)    contiki-wismote.a(sicslowpan.o) (tcpip_set_outputfunc)
contiki-wismote.a(uip-debug.o)
                              contiki-wismote.a(uip-ds6-route.o) (uip_debug_ipaddr_print)
contiki-wismote.a(rpl.o)      contiki-wismote.a(uip-ds6-nbr.o) (rpl_link_neighbor_callback)
contiki-wismote.a(rpl-dag.o)  contiki-wismote.a(rpl.o) (rpl_dag_init)
contiki-wismote.a(rpl-ext-header.)
                              contiki-wismote.a(uip6.o) (rpl_verify_hbh_header)
contiki-wismote.a(rpl-icmp6.o)
                              contiki-wismote.a(rpl-dag.o) (rpl_icmp6_update_nbr_table)
contiki-wismote.a(rpl-mrhof.o)
                              contiki-wismote.a(rpl-dag.o) (rpl_mrhof)
contiki-wismote.a(rpl-of0.o)  contiki-wismote.a(rpl-dag.o) (rpl_of0)
contiki-wismote.a(rpl-timers.o)
                              contiki-wismote.a(rpl.o) (rpl_reset_periodic_timer)
contiki-wismote.a(linkaddr.o)
                              obj_wismote/contiki-wismote-main.o (linkaddr_copy)
contiki-wismote.a(link-stats.o)
                              contiki-wismote.a(rpl-dag.o) (link_stats_from_lladdr)
contiki-wismote.a(nbr-table.o)
                              contiki-wismote.a(uip-ds6-nbr.o) (nbr_table_register)
contiki-wismote.a(net-debug.o)
                              contiki-wismote.a(rpl-icmp6.o) (net_debug_lladdr_print)
contiki-wismote.a(packetbuf.o)
                              contiki-wismote.a(cc2520.o) (packetbuf_set_datalen)
contiki-wismote.a(queuebuf.o)
                              obj_wismote/contiki-wismote-main.o (queuebuf_init)
contiki-wismote.a(csma.o)     udp-server.co (csma_driver)
contiki-wismote.a(framer-802154.o)
                              contiki-wismote.a(sicslowpan.o) (framer_802154)
contiki-wismote.a(mac.o)      contiki-wismote.a(csma.o) (mac_call_sent_callback)
contiki-wismote.a(contikimac.o)
                              obj_wismote/contiki-wismote-main.o (contikimac_driver)
contiki-wismote.a(nullsec.o)  contiki-wismote.a(sicslowpan.o) (nullsec_driver)
contiki-wismote.a(spi.o)      contiki-wismote.a(xmem.o) (spi_init)
contiki-wismote.a(stimer.o)   contiki-wismote.a(uip-ds6.o) (stimer_set)
contiki-wismote.a(memb.o)     contiki-wismote.a(uip-ds6-route.o) (memb_init)
contiki-wismote.a(rpl-nbr-policy.)
                              contiki-wismote.a(nbr-table.o) (rpl_nbr_policy_find_removable)
contiki-wismote.a(frame802154.o)
                              contiki-wismote.a(framer-802154.o) (frame802154_get_pan_id)
contiki-wismote.a(mac-sequence.o)
                              contiki-wismote.a(contikimac.o) (mac_sequence_is_duplicate)
/opt/compilers/mspgcc-4.7.3/bin/../lib/gcc/msp430/4.7.3/../../../../msp430/lib/mcpu-430x/mmpy-16/msr20/mc20/libm.a(ef_exp.o)
                              contiki-wismote.a(battery_kinetic) (expf)
/opt/compilers/mspgcc-4.7.3/bin/../lib/gcc/msp430/4.7.3/mcpu-430x/mmpy-16/msr20/mc20/libgcc.a(_udivmod16.o)
                              contiki-wismote.a(rpl-dag.o) (__udivhi3)
/opt/compilers/mspgcc-4.7.3/bin/../lib/gcc/msp430/4.7.3/mcpu-430x/mmpy-16/msr20/mc20/libgcc.a(_divmod16.o)
                              contiki-wismote.a(sicslowpan.o) (__divhi3)
/opt/compilers/mspgcc-4.7.3/bin/../lib/gcc/msp430/4.7.3/mcpu-430x/mmpy-16/msr20/mc20/libgcc.a(_udivmod32.o)
                              obj_wismote/contiki-wismote-main.o (__udivsi3)
/opt/compilers/mspgcc-4.7.3/bin/../lib/gcc/msp430/4.7.3/mcpu-430x/mmpy-16/msr20/mc20/libgcc.a(_divmod32.o)
                              contiki-wismote.a(link-stats.o) (__divsi3)
/opt/compilers/mspgcc-4.7.3/bin/../lib/gcc/msp430/4.7.3/mcpu-430x/mmpy-16/msr20/mc20/libgcc.a(_fixunssfsi.o)
                              contiki-wismote.a(battery_kinetic) (__fixunssfsi)
/opt/compilers/mspgcc-4.7.3/bin/../lib/gcc/msp430/4.7.3/mcpu-430x/mmpy-16/msr20/mc20/libgcc.a(_addsub_sf.o)
                              contiki-wismote.a(battery_kinetic) (__addsf3)
/opt/compilers/mspgcc-4.7.3/bin/../lib/gcc/msp430/4.7.3/mcpu-430x/mmpy-16/msr20/mc20/libgcc.a(_mul_sf.o)
                              contiki-wismote.a(battery_kinetic) (__mulsf3)
/opt/compilers/mspgcc-4.7.3/bin/../lib/gcc/msp430/4.7.3/mcpu-430x/mmpy-16/msr20/mc20/libgcc.a(_div_sf.o)
                              contiki-wismote.a(battery_kinetic) (__divsf3)
/opt/compilers/mspgcc-4.7.3/bin/../lib/gcc/msp430/4.7.3/mcpu-430x/mmpy-16/msr20/mc20/libgcc.a(_gt_sf.o)
                              contiki-wismote.a(battery_kinetic) (__gtsf2)
/opt/compilers/mspgcc-4.7.3/bin/../lib/gcc/msp430/4.7.3/mcpu-430x/mmpy-16/msr20/mc20/libgcc.a(_ge_sf.o)
                              /opt/compilers/mspgcc-4.7.3/bin/../lib/gcc/msp430/4.7.3/mcpu-430x/mmpy-16/msr20/mc20/libgcc.a(_fixunssfsi.o) (__gesf2)
/opt/compilers/mspgcc-4.7.3/bin/../lib/gcc/msp430/4.7.3/mcpu-430x/mmpy-16/msr20/mc20/libgcc.a(_si_to_sf.o)
                              /opt/compilers/mspgcc-4.7.3/bin/../lib/gcc/msp430/4.7.3/../../../../msp430/lib/mcpu-430x/mmpy-16/msr20/mc20/libm.a(ef_exp.o) (__floatsisf)
/opt/compilers/mspgcc-4.7.3/bin/../lib/gcc/msp430/4.7.3/mcpu-430x/mmpy-16/msr20/mc20/libgcc.a(_sf_to_si.o)
                              contiki-wismote.a(battery_kinetic) (__fixsfsi)
/opt/compilers/mspgcc-4.7.3/bin/../lib/gcc/msp430/4.7.3/mcpu-430x/mmpy-16/msr20/mc20/libgcc.a(_thenan_sf.o)
                              /opt/compilers/mspgcc-4.7.3/bin/../lib/gcc/msp430/4.7.3/mcpu-430x/mmpy-16/msr20/mc20/libgcc.a(_addsub_sf.o) (__thenan_sf)
/opt/compilers/mspgcc-4.7.3/bin/../lib/gcc/msp430/4.7.3/mcpu-430x/mmpy-16/msr20/mc20/libgcc.a(_usi_to_sf.o)
                              contiki-wismote.a(battery_kinetic) (__floatunsisf)
/opt/compilers/mspgcc-4.7.3/bin/../lib/gcc/msp430/4.7.3/mcpu-430x/mmpy-16/msr20/mc20/libgcc.a(_clzsi2.o)
                              /opt/compilers/mspgcc-4.7.3/bin/../lib/gcc/msp430/4.7.3/mcpu-430x/mmpy-16/msr20/mc20/libgcc.a(_si_to_sf.o) (__clzsi2)
/opt/compilers/mspgcc-4.7.3/bin/../lib/gcc/msp430/4.7.3/mcpu-430x/mmpy-16/msr20/mc20/libgcc.a(_pack_sf.o)
                              /opt/compilers/mspgcc-4.7.3/bin/../lib/gcc/msp430/4.7.3/mcpu-430x/mmpy-16/msr20/mc20/libgcc.a(_addsub_sf.o) (__pack_f)
/opt/compilers/mspgcc-4.7.3/bin/../lib/gcc/msp430/4.7.3/mcpu-430x/mmpy-16/msr20/mc20/libgcc.a(_unpack_sf.o)
                              /opt/compilers/mspgcc-4.7.3/bin/../lib/gcc/msp430/4.7.3/mcpu-430x/mmpy-16/msr20/mc20/libgcc.a(_addsub_sf.o) (__unpack_f)
/opt/compilers/mspgcc-4.7.3/bin/../lib/gcc/msp430/4.7.3/mcpu-430x/mmpy-16/msr20/mc20/libgcc.a(_fpcmp_parts_sf.o)
                              /opt/compilers/mspgcc-4.7.3/bin/../lib/gcc/msp430/4.7.3/mcpu-430x/mmpy-16/msr20/mc20/libgcc.a(_gt_sf.o) (__fpcmp_parts_f)
/opt/compilers/mspgcc-4.7.3/bin/../lib/gcc/msp430/4.7.3/mcpu-430x/mmpy-16/msr20/mc20/libgcc.a(_clz.o)
                              /opt/compilers/mspgcc-4.7.3/bin/../lib/gcc/msp430/4.7.3/mcpu-430x/mmpy-16/msr20/mc20/libgcc.a(_clzsi2.o) (__clz_tab)
/opt/compilers/mspgcc-4.7.3/bin/../lib/gcc/msp430/4.7.3/../../../../msp430/lib/mcpu-430x/mmpy-16/msr20/mc20/libc.a(printf.o)
                              udp-server.co (printf)
/opt/compilers/mspgcc-4.7.3/bin/../lib/gcc/msp430/4.7.3/../../../../msp430/lib/mcpu-430x/mmpy-16/msr20/mc20/libc.a(vuprintf.o)
                              /opt/compilers/mspgcc-4.7.3/bin/../lib/gcc/msp430/4.7.3/../../../../msp430/lib/mcpu-430x/mmpy-16/msr20/mc20/libc.a(printf.o) (vuprintf)
/opt/compilers/mspgcc-4.7.3/bin/../lib/gcc/msp430/4.7.3/../../../../msp430/lib/mcpu-430x/mmpy-16/msr20/mc20/libc.a(puts.o)
                              udp-server.co (puts)
/opt/compilers/mspgcc-4.7.3/bin/../lib/gcc/msp430/4.7.3/../../../../msp430/lib/mcpu-430x/mmpy-16/msr20/mc20/libc.a(rand.o)
                              contiki-wismote.a(battery_kinetic) (rand)
/opt/compilers/mspgcc-4.7.3/bin/../lib/gcc/msp430/4.7.3/../../../../msp430/lib/mcpu-430x/mmpy-16/msr20/mc20/libc.a(strncmp.o)
                              contiki-wismote.a(sensors.o) (strncmp)
/opt/compilers/mspgcc-4.7.3/bin/../lib/gcc/msp430/4.7.3/../../../../msp430/lib/mcpu-430x/mmpy-16/msr20/mc20/libc.a(memcmp.o)
                              contiki-wismote.a(sicslowpan.o) (memcmp)
/opt/compilers/mspgcc-4.7.3/bin/../lib/gcc/msp430/4.7.3/../../../../msp430/lib/mcpu-430x/mmpy-16/msr20/mc20/libc.a(memcpy.o)
                              obj_wismote/contiki-wismote-main.o (memcpy)
/opt/compilers/mspgcc-4.7.3/bin/../lib/gcc/msp430/4.7.3/../../../../msp430/lib/mcpu-430x/mmpy-16/msr20/mc20/libc.a(memmove.o)
                              contiki-wismote.a(sicslowpan.o) (memmove)
/opt/compilers/mspgcc-4.7.3/bin/../lib/gcc/msp430/4.7.3/../../../../msp430/lib/mcpu-430x/mmpy-16/msr20/mc20/libc.a(memset.o)
                              obj_wismote/contiki-wismote-main.o (memset)
/opt/compilers/mspgcc-4.7.3/bin/../lib/gcc/msp430/4.7.3/mcpu-430x/mmpy-16/msr20/mc20/libgcc.a(_mulsi3.o)
                              /opt/compilers/mspgcc-4.7.3/bin/../lib/gcc/msp430/4.7.3/../../../../msp430/lib/mcpu-430x/mmpy-16/msr20/mc20/libc.a(rand.o) (__mulsi3)
/opt/compilers/mspgcc-4.7.3/bin/../lib/gcc/msp430/4.7.3/mcpu-430x/mmpy-16/msr20/mc20/libgcc.a(_udivmod64.o)
                              /opt/compilers/mspgcc-4.7.3/bin/../lib/gcc/msp430/4.7.3/../../../../msp430/lib/mcpu-430x/mmpy-16/msr20/mc20/libc.a(vuprintf.o) (__udivdi3)
/opt/compilers/mspgcc-4.7.3/bin/../lib/gcc/msp430/4.7.3/mcpu-430x/mmpy-16/msr20/mc20/libcrt0.a(_reset_vector__.o)
                              (_reset_vector__)
/opt/compilers/mspgcc-4.7.3/bin/../lib/gcc/msp430/4.7.3/mcpu-430x/mmpy-16/msr20/mc20/libcrt0.a(__watchdog_support.o)
                              /opt/compilers/mspgcc-4.7.3/bin/../lib/gcc/msp430/4.7.3/mcpu-430x/mmpy-16/msr20/mc20/libcrt0.a(_reset_vector__.o) (__watchdog_support)
/opt/compilers/mspgcc-4.7.3/bin/../lib/gcc/msp430/4.7.3/mcpu-430x/mmpy-16/msr20/mc20/libcrt0.a(__init_stack.o)
                              /opt/compilers/mspgcc-4.7.3/bin/../lib/gcc/msp430/4.7.3/mcpu-430x/mmpy-16/msr20/mc20/libcrt0.a(_reset_vector__.o) (__init_stack)
/opt/compilers/mspgcc-4.7.3/bin/../lib/gcc/msp430/4.7.3/mcpu-430x/mmpy-16/msr20/mc20/libcrt0.a(__low_level_init.o)
                              /opt/compilers/mspgcc-4.7.3/bin/../lib/gcc/msp430/4.7.3/mcpu-430x/mmpy-16/msr20/mc20/libcrt0.a(_reset_vector__.o) (__low_level_init)
/opt/compilers/mspgcc-4.7.3/bin/../lib/gcc/msp430/4.7.3/mcpu-430x/mmpy-16/msr20/mc20/libcrt0.a(_copy_data.o)
                              /opt/compilers/mspgcc-4.7.3/bin/../lib/gcc/msp430/4.7.3/mcpu-430x/mmpy-16/msr20/mc20/libcrt0.a(_reset_vector__.o) (__do_copy_data)
/opt/compilers/mspgcc-4.7.3/bin/../lib/gcc/msp430/4.7.3/mcpu-430x/mmpy-16/msr20/mc20/libcrt0.a(_clear_bss.o)
                              /opt/compilers/mspgcc-4.7.3/bin/../lib/gcc/msp430/4.7.3/mcpu-430x/mmpy-16/msr20/mc20/libcrt0.a(_reset_vector__.o) (__do_clear_bss)
/opt/compilers/mspgcc-4.7.3/bin/../lib/gcc/msp430/4.7.3/mcpu-430x/mmpy-16/msr20/mc20/libcrt0.a(__stop_progExec__.o)
                              /opt/compilers/mspgcc-4.7.3/bin/../lib/gcc/msp430/4.7.3/mcpu-430x/mmpy-16/msr20/mc20/libcrt0.a(_reset_vector__.o) (__stop_progExec__)
/opt/compilers/mspgcc-4.7.3/bin/../lib/gcc/msp430/4.7.3/mcpu-430x/mmpy-16/msr20/mc20/libcrt0.a(_endless_loop__.o)
                              /opt/compilers/mspgcc-4.7.3/bin/../lib/gcc/msp430/4.7.3/mcpu-430x/mmpy-16/msr20/mc20/libcrt0.a(_reset_vector__.o) (_endless_loop__)
/opt/compilers/mspgcc-4.7.3/bin/../lib/gcc/msp430/4.7.3/mcpu-430x/mmpy-16/msr20/mc20/libcrt0.a(_unexpected_.o)
                              /opt/compilers/mspgcc-4.7.3/bin/../lib/gcc/msp430/4.7.3/mcpu-430x/mmpy-16/msr20/mc20/crt0ivtbl64.o (_unexpected_)

Allocating common symbols
Common symbol       size              file

compower_idle_activity
                    0x8               contiki-wismote.a(compower.o)
energest_total_time
                    0x30              contiki-wismote.a(energest.o)
uip_ds6_timer_ra    0x8               contiki-wismote.a(uip-ds6.o)
uip_ds6_if          0xec              contiki-wismote.a(uip-ds6.o)
solar_charging_func
                    0x4               contiki-wismote.a(battery_kinetic)
uip_ds6_netif_addr_list_offset
                    0x1               contiki-wismote.a(uip-ds6.o)
uip_len             0x2               contiki-wismote.a(uip6.o)
energest_total_count
                    0x2               contiki-wismote.a(energest.o)
cc2520_sfd_counter  0x1               contiki-wismote.a(cc2520.o)
cc2520_sfd_start_time
                    0x2               contiki-wismote.a(cc2520.o)
batt                0x20              contiki-wismote.a(battery_kinetic)
set_state           0x2               contiki-wismote.a(battery_kinetic)
uip_ds6_addr_size   0x1               contiki-wismote.a(uip-ds6.o)
new_drain_rate      0x4               contiki-wismote.a(battery_kinetic)
uip_sappdata        0x2               contiki-wismote.a(uip6.o)
energest_current_mode
                    0xc               contiki-wismote.a(energest.o)
packetbuf_addrs     0x10              contiki-wismote.a(packetbuf.o)
uip_acc32           0x4               contiki-wismote.a(uip6.o)
cc2520_sfd_end_time
                    0x2               contiki-wismote.a(cc2520.o)
ID                  0x2               udp-server.co
cc2520_time_of_departure
                    0x2               contiki-wismote.a(cc2520.o)
uip_ds6_prefix_list
                    0x5a              contiki-wismote.a(uip-ds6.o)
process_maxevents   0x1               contiki-wismote.a(process.o)
cc2520_packets_seen
                    0x2               contiki-wismote.a(cc2520.o)
uip_lladdr          0x8               contiki-wismote.a(uip6.o)
uip_aligned_buf     0xf0              contiki-wismote.a(uip6.o)
uip_flags           0x1               contiki-wismote.a(uip6.o)
periodic_timer      0x16              contiki-wismote.a(link-stats.o)
uip_ds6_timer_periodic
                    0xc               contiki-wismote.a(uip-ds6.o)
uip_next_hdr        0x2               contiki-wismote.a(uip6.o)
linkaddr_node_addr  0x8               contiki-wismote.a(linkaddr.o)
cc2520_packets_read
                    0x2               contiki-wismote.a(cc2520.o)
store_instance      0x46              contiki-wismote.a(instance_pool.o)
cc2520_last_rssi    0x1               contiki-wismote.a(cc2520.o)
uip_udp_conn        0x2               contiki-wismote.a(uip6.o)
cc2520_time_of_arrival
                    0x2               contiki-wismote.a(cc2520.o)
packetbuf_attrs     0x1e              contiki-wismote.a(packetbuf.o)
msp430_dco_required
                    0x2               contiki-wismote.a(msp430.o)
last_joined_instance
                    0x2               contiki-wismote.a(rpl-dag.o)
instance_table      0x4b0             contiki-wismote.a(rpl-dag.o)
uip_appdata         0x2               contiki-wismote.a(uip6.o)
uip_conn            0x2               contiki-wismote.a(uip6.o)
tcpip_event         0x1               contiki-wismote.a(tcpip.o)
uip_conns           0xb0              contiki-wismote.a(uip6.o)
cc2520_authority_level_of_sender
                    0x2               contiki-wismote.a(cc2520.o)
identification      0xe               contiki-wismote.a(instance_pool.o)
uip_listenports     0x10              contiki-wismote.a(uip6.o)
btt_interval_min    0x2               contiki-wismote.a(battery_kinetic)
energest_current_time
                    0x18              contiki-wismote.a(energest.o)
sensors_flags       0x2               contiki-wismote.a(contiki-wismote)
stats_com           0x18              contiki-wismote.a(battery_kinetic)
sensors_event       0x1               contiki-wismote.a(sensors.o)
cc2520_last_correlation
                    0x1               contiki-wismote.a(cc2520.o)
btt_interval_sec    0x2               contiki-wismote.a(battery_kinetic)
uip_slen            0x2               contiki-wismote.a(uip6.o)
uip_udp_conns       0x168             contiki-wismote.a(uip6.o)

Discarded input sections

 .data          0x0000000000000000        0x0 /opt/compilers/mspgcc-4.7.3/bin/../lib/gcc/msp430/4.7.3/mcpu-430x/mmpy-16/msr20/mc20/crt0ivtbl64.o
 .bss           0x0000000000000000        0x0 /opt/compilers/mspgcc-4.7.3/bin/../lib/gcc/msp430/4.7.3/mcpu-430x/mmpy-16/msr20/mc20/crt0ivtbl64.o
 .text.crt0     0x0000000000000000        0x0 /opt/compilers/mspgcc-4.7.3/bin/../lib/gcc/msp430/4.7.3/mcpu-430x/mmpy-16/msr20/mc20/crt0ivtbl64.o
 .text          0x0000000000000000        0x0 udp-server.co
 .data          0x0000000000000000        0x0 udp-server.co
 .bss           0x0000000000000000        0x0 udp-server.co
 .bss.create    0x0000000000000000        0x2 udp-server.co
 .bss.timer     0x0000000000000000        0x2 udp-server.co
 COMMON         0x0000000000000000        0x2 udp-server.co
 .text          0x0000000000000000        0x0 obj_wismote/contiki-wismote-main.o
 .data          0x0000000000000000        0x0 obj_wismote/contiki-wismote-main.o
 .bss           0x0000000000000000        0x0 obj_wismote/contiki-wismote-main.o
 .far.text.uip_log
                0x0000000000000000        0x6 obj_wismote/contiki-wismote-main.o
 .text          0x0000000000000000        0x0 contiki-wismote.a(contiki-wismote)
 .data          0x0000000000000000        0x0 contiki-wismote.a(contiki-wismote)
 .bss           0x0000000000000000        0x0 contiki-wismote.a(contiki-wismote)
 .text          0x0000000000000000        0x0 contiki-wismote.a(button-sensor.o)
 .data          0x0000000000000000        0x0 contiki-wismote.a(button-sensor.o)
 .bss           0x0000000000000000        0x0 contiki-wismote.a(button-sensor.o)
 .text          0x0000000000000000        0x0 contiki-wismote.a(xmem.o)
 .data          0x0000000000000000        0x0 contiki-wismote.a(xmem.o)
 .bss           0x0000000000000000        0x0 contiki-wismote.a(xmem.o)
 .far.text.write_enable
                0x0000000000000000       0x56 contiki-wismote.a(xmem.o)
 .far.text.xmem_pwrite
                0x0000000000000000      0x148 contiki-wismote.a(xmem.o)
 .far.text.xmem_erase
                0x0000000000000000       0xca contiki-wismote.a(xmem.o)
 .text          0x0000000000000000        0x0 contiki-wismote.a(node-id.o)
 .data          0x0000000000000000        0x0 contiki-wismote.a(node-id.o)
 .bss           0x0000000000000000        0x0 contiki-wismote.a(node-id.o)
 .far.text.node_id_burn
                0x0000000000000000       0x36 contiki-wismote.a(node-id.o)
 .text          0x0000000000000000        0x0 contiki-wismote.a(sensors.o)
 .data          0x0000000000000000        0x0 contiki-wismote.a(sensors.o)
 .bss           0x0000000000000000        0x0 contiki-wismote.a(sensors.o)
 .far.text.sensors_first
                0x0000000000000000        0x6 contiki-wismote.a(sensors.o)
 .far.text.sensors_next
                0x0000000000000000       0x24 contiki-wismote.a(sensors.o)
 .far.text.sensors_find
                0x0000000000000000       0x40 contiki-wismote.a(sensors.o)
 .text          0x0000000000000000        0x0 contiki-wismote.a(cc2520.o)
 .data          0x0000000000000000        0x0 contiki-wismote.a(cc2520.o)
 .bss           0x0000000000000000        0x0 contiki-wismote.a(cc2520.o)
 .far.text.cc2520_get_channel
                0x0000000000000000        0x6 contiki-wismote.a(cc2520.o)
 .far.text.cc2520_set_txpower
                0x0000000000000000       0x14 contiki-wismote.a(cc2520.o)
 .far.text.cc2520_rssi
                0x0000000000000000       0x60 contiki-wismote.a(cc2520.o)
 .far.text.cc2520_cca_valid
                0x0000000000000000       0x26 contiki-wismote.a(cc2520.o)
 .far.text.cc2520_set_cca_threshold
                0x0000000000000000       0x14 contiki-wismote.a(cc2520.o)
 .text          0x0000000000000000        0x0 contiki-wismote.a(cc2520-arch.o)
 .data          0x0000000000000000        0x0 contiki-wismote.a(cc2520-arch.o)
 .bss           0x0000000000000000        0x0 contiki-wismote.a(cc2520-arch.o)
 .text          0x0000000000000000        0x0 contiki-wismote.a(uart1.o)
 .data          0x0000000000000000        0x0 contiki-wismote.a(uart1.o)
 .bss           0x0000000000000000        0x0 contiki-wismote.a(uart1.o)
 .far.text.uart1_set_input
                0x0000000000000000        0x6 contiki-wismote.a(uart1.o)
 .text          0x0000000000000000        0x0 contiki-wismote.a(uart1-putchar.o)
 .data          0x0000000000000000        0x0 contiki-wismote.a(uart1-putchar.o)
 .bss           0x0000000000000000        0x0 contiki-wismote.a(uart1-putchar.o)
 .text          0x0000000000000000        0x0 contiki-wismote.a(msp430.o)
 .data          0x0000000000000000        0x0 contiki-wismote.a(msp430.o)
 .bss           0x0000000000000000        0x0 contiki-wismote.a(msp430.o)
 .far.text.msp430_add_lpm_req
                0x0000000000000000        0xc contiki-wismote.a(msp430.o)
 .far.text.msp430_remove_lpm_req
                0x0000000000000000        0xc contiki-wismote.a(msp430.o)
 .far.text.sbrk
                0x0000000000000000       0x1e contiki-wismote.a(msp430.o)
 .text          0x0000000000000000        0x0 contiki-wismote.a(clock.o)
 .data          0x0000000000000000        0x0 contiki-wismote.a(clock.o)
 .bss           0x0000000000000000        0x0 contiki-wismote.a(clock.o)
 .far.text.clock_set
                0x0000000000000000       0x16 contiki-wismote.a(clock.o)
 .far.text.clock_fine_max
                0x0000000000000000        0x6 contiki-wismote.a(clock.o)
 .far.text.clock_fine
                0x0000000000000000        0xc contiki-wismote.a(clock.o)
 .far.text.clock_set_seconds
                0x0000000000000000       0x18 contiki-wismote.a(clock.o)
 .far.text.clock_counter
                0x0000000000000000        0xe contiki-wismote.a(clock.o)
 .text          0x0000000000000000        0x0 contiki-wismote.a(leds.o)
 .data          0x0000000000000000        0x0 contiki-wismote.a(leds.o)
 .bss           0x0000000000000000        0x0 contiki-wismote.a(leds.o)
 .far.text.leds_get
                0x0000000000000000        0x6 contiki-wismote.a(leds.o)
 .far.text.leds_set
                0x0000000000000000        0x6 contiki-wismote.a(leds.o)
 .far.text.leds_toggle
                0x0000000000000000        0xa contiki-wismote.a(leds.o)
 .far.text.leds_blink
                0x0000000000000000       0x20 contiki-wismote.a(leds.o)
 .text          0x0000000000000000        0x0 contiki-wismote.a(leds-arch.o)
 .data          0x0000000000000000        0x0 contiki-wismote.a(leds-arch.o)
 .bss           0x0000000000000000        0x0 contiki-wismote.a(leds-arch.o)
 .far.text.leds_arch_get
                0x0000000000000000       0x2c contiki-wismote.a(leds-arch.o)
 .text          0x0000000000000000        0x0 contiki-wismote.a(watchdog.o)
 .data          0x0000000000000000        0x0 contiki-wismote.a(watchdog.o)
 .bss           0x0000000000000000        0x0 contiki-wismote.a(watchdog.o)
 .far.text.watchdog_reboot
                0x0000000000000000        0x6 contiki-wismote.a(watchdog.o)
 .text          0x0000000000000000        0x0 contiki-wismote.a(rtimer-arch.o)
 .data          0x0000000000000000        0x0 contiki-wismote.a(rtimer-arch.o)
 .bss           0x0000000000000000        0x0 contiki-wismote.a(rtimer-arch.o)
 .text          0x0000000000000000        0x0 contiki-wismote.a(autostart.o)
 .data          0x0000000000000000        0x0 contiki-wismote.a(autostart.o)
 .bss           0x0000000000000000        0x0 contiki-wismote.a(autostart.o)
 .far.text.autostart_exit
                0x0000000000000000       0x14 contiki-wismote.a(autostart.o)
 .text          0x0000000000000000        0x0 contiki-wismote.a(battery_kinetic)
 .data          0x0000000000000000        0x0 contiki-wismote.a(battery_kinetic)
 .bss           0x0000000000000000        0x0 contiki-wismote.a(battery_kinetic)
 .data.EHARM    0x0000000000000000        0x4 contiki-wismote.a(battery_kinetic)
 .data.ELT      0x0000000000000000        0x4 contiki-wismote.a(battery_kinetic)
 .text          0x0000000000000000        0x0 contiki-wismote.a(compower.o)
 .data          0x0000000000000000        0x0 contiki-wismote.a(compower.o)
 .bss           0x0000000000000000        0x0 contiki-wismote.a(compower.o)
 .far.text.compower_init
                0x0000000000000000       0x12 contiki-wismote.a(compower.o)
 .far.text.compower_accumulate
                0x0000000000000000       0x6a contiki-wismote.a(compower.o)
 .far.text.compower_clear
                0x0000000000000000       0x12 contiki-wismote.a(compower.o)
 .far.text.compower_attrconv
                0x0000000000000000       0x10 contiki-wismote.a(compower.o)
 .far.text.compower_accumulate_attrs
                0x0000000000000000       0x20 contiki-wismote.a(compower.o)
 .bss.last_listen.2919
                0x0000000000000000        0x4 contiki-wismote.a(compower.o)
 .bss.last_transmit.2920
                0x0000000000000000        0x4 contiki-wismote.a(compower.o)
 .text          0x0000000000000000        0x0 contiki-wismote.a(ctimer.o)
 .data          0x0000000000000000        0x0 contiki-wismote.a(ctimer.o)
 .bss           0x0000000000000000        0x0 contiki-wismote.a(ctimer.o)
 .far.text.ctimer_expired
                0x0000000000000000       0x30 contiki-wismote.a(ctimer.o)
 .text          0x0000000000000000        0x0 contiki-wismote.a(energest.o)
 .data          0x0000000000000000        0x0 contiki-wismote.a(energest.o)
 .bss           0x0000000000000000        0x0 contiki-wismote.a(energest.o)
 .far.text.energest_leveldevice_leveltime
                0x0000000000000000        0x6 contiki-wismote.a(energest.o)
 .text          0x0000000000000000        0x0 contiki-wismote.a(etimer.o)
 .data          0x0000000000000000        0x0 contiki-wismote.a(etimer.o)
 .bss           0x0000000000000000        0x0 contiki-wismote.a(etimer.o)
 .far.text.etimer_reset_with_new_interval
                0x0000000000000000       0x1e contiki-wismote.a(etimer.o)
 .far.text.etimer_adjust
                0x0000000000000000       0x1a contiki-wismote.a(etimer.o)
 .far.text.etimer_start_time
                0x0000000000000000        0x8 contiki-wismote.a(etimer.o)
 .text          0x0000000000000000        0x0 contiki-wismote.a(instance_pool.o)
 .data          0x0000000000000000        0x0 contiki-wismote.a(instance_pool.o)
 .bss           0x0000000000000000        0x0 contiki-wismote.a(instance_pool.o)
 .far.text.change_instance_status
                0x0000000000000000       0x28 contiki-wismote.a(instance_pool.o)
 .text          0x0000000000000000        0x0 contiki-wismote.a(process.o)
 .data          0x0000000000000000        0x0 contiki-wismote.a(process.o)
 .bss           0x0000000000000000        0x0 contiki-wismote.a(process.o)
 .far.text.process_exit
                0x0000000000000000        0xa contiki-wismote.a(process.o)
 .far.text.process_is_running
                0x0000000000000000        0xe contiki-wismote.a(process.o)
 .text          0x0000000000000000        0x0 contiki-wismote.a(rtimer.o)
 .data          0x0000000000000000        0x0 contiki-wismote.a(rtimer.o)
 .bss           0x0000000000000000        0x0 contiki-wismote.a(rtimer.o)
 .text          0x0000000000000000        0x0 contiki-wismote.a(timer.o)
 .data          0x0000000000000000        0x0 contiki-wismote.a(timer.o)
 .bss           0x0000000000000000        0x0 contiki-wismote.a(timer.o)
 .far.text.timer_remaining
                0x0000000000000000       0x24 contiki-wismote.a(timer.o)
 .text          0x0000000000000000        0x0 contiki-wismote.a(list.o)
 .data          0x0000000000000000        0x0 contiki-wismote.a(list.o)
 .bss           0x0000000000000000        0x0 contiki-wismote.a(list.o)
 .far.text.list_copy
                0x0000000000000000        0x6 contiki-wismote.a(list.o)
 .far.text.list_chop
                0x0000000000000000       0x1a contiki-wismote.a(list.o)
 .far.text.list_pop
                0x0000000000000000        0xe contiki-wismote.a(list.o)
 .far.text.list_insert
                0x0000000000000000       0x16 contiki-wismote.a(list.o)
 .text          0x0000000000000000        0x0 contiki-wismote.a(random.o)
 .data          0x0000000000000000        0x0 contiki-wismote.a(random.o)
 .bss           0x0000000000000000        0x0 contiki-wismote.a(random.o)
 .text          0x0000000000000000        0x0 contiki-wismote.a(sicslowpan.o)
 .data          0x0000000000000000        0x0 contiki-wismote.a(sicslowpan.o)
 .bss           0x0000000000000000        0x0 contiki-wismote.a(sicslowpan.o)
 .far.text.rime_sniffer_add
                0x0000000000000000        0x6 contiki-wismote.a(sicslowpan.o)
 .far.text.rime_sniffer_remove
                0x0000000000000000        0x6 contiki-wismote.a(sicslowpan.o)
 .far.text.sicslowpan_get_last_rssi
                0x0000000000000000        0x6 contiki-wismote.a(sicslowpan.o)
 .text          0x0000000000000000        0x0 contiki-wismote.a(uip6.o)
 .data          0x0000000000000000        0x0 contiki-wismote.a(uip6.o)
 .bss           0x0000000000000000        0x0 contiki-wismote.a(uip6.o)
 .far.text.uip_chksum
                0x0000000000000000       0x18 contiki-wismote.a(uip6.o)
 .far.text.uip_connect
                0x0000000000000000      0x108 contiki-wismote.a(uip6.o)
 .far.text.uip_listen
                0x0000000000000000       0x1a contiki-wismote.a(uip6.o)
 .far.text.uip_htons
                0x0000000000000000        0xc contiki-wismote.a(uip6.o)
 .far.text.uip_send
                0x0000000000000000       0x48 contiki-wismote.a(uip6.o)
 .text          0x0000000000000000        0x0 contiki-wismote.a(uip-ds6.o)
 .data          0x0000000000000000        0x0 contiki-wismote.a(uip-ds6.o)
 .bss           0x0000000000000000        0x0 contiki-wismote.a(uip-ds6.o)
 .far.text.uip_ds6_prefix_rm
                0x0000000000000000        0xa contiki-wismote.a(uip-ds6.o)
 .far.text.uip_ds6_prefix_lookup
                0x0000000000000000       0x28 contiki-wismote.a(uip-ds6.o)
 .far.text.uip_ds6_get_global
                0x0000000000000000       0x3e contiki-wismote.a(uip-ds6.o)
 .far.text.uip_ds6_aaddr_add
                0x0000000000000000       0x46 contiki-wismote.a(uip-ds6.o)
 .far.text.uip_ds6_aaddr_rm
                0x0000000000000000        0xa contiki-wismote.a(uip-ds6.o)
 .far.text.uip_ds6_aaddr_lookup
                0x0000000000000000       0x28 contiki-wismote.a(uip-ds6.o)
 .bss.locaaddr  0x0000000000000000        0x2 contiki-wismote.a(uip-ds6.o)
 .text          0x0000000000000000        0x0 contiki-wismote.a(uip-ds6-nbr.o)
 .data          0x0000000000000000        0x0 contiki-wismote.a(uip-ds6-nbr.o)
 .bss           0x0000000000000000        0x0 contiki-wismote.a(uip-ds6-nbr.o)
 .far.text.uip_ds6_nbr_get_ipaddr
                0x0000000000000000        0x2 contiki-wismote.a(uip-ds6-nbr.o)
 .far.text.uip_ds6_nbr_num
                0x0000000000000000       0x24 contiki-wismote.a(uip-ds6-nbr.o)
 .text          0x0000000000000000        0x0 contiki-wismote.a(uip-ds6-route.o)
 .data          0x0000000000000000        0x0 contiki-wismote.a(uip-ds6-route.o)
 .bss           0x0000000000000000        0x0 contiki-wismote.a(uip-ds6-route.o)
 .far.text.uip_ds6_notification_add
                0x0000000000000000       0x18 contiki-wismote.a(uip-ds6-route.o)
 .far.text.uip_ds6_notification_rm
                0x0000000000000000        0xc contiki-wismote.a(uip-ds6-route.o)
 .far.text.uip_ds6_route_num_routes
                0x0000000000000000        0x6 contiki-wismote.a(uip-ds6-route.o)
 .far.text.uip_ds6_route_rm_by_nexthop
                0x0000000000000000       0x14 contiki-wismote.a(uip-ds6-route.o)
 .text          0x0000000000000000        0x0 contiki-wismote.a(uip-icmp6.o)
 .data          0x0000000000000000        0x0 contiki-wismote.a(uip-icmp6.o)
 .bss           0x0000000000000000        0x0 contiki-wismote.a(uip-icmp6.o)
 .far.text.uip_icmp6_echo_reply_callback_add
                0x0000000000000000       0x18 contiki-wismote.a(uip-icmp6.o)
 .far.text.uip_icmp6_echo_reply_callback_rm
                0x0000000000000000        0xc contiki-wismote.a(uip-icmp6.o)
 .text          0x0000000000000000        0x0 contiki-wismote.a(uip-nd6.o)
 .data          0x0000000000000000        0x0 contiki-wismote.a(uip-nd6.o)
 .bss           0x0000000000000000        0x0 contiki-wismote.a(uip-nd6.o)
 .far.text.uip_nd6_ns_output
                0x0000000000000000      0x17a contiki-wismote.a(uip-nd6.o)
 .text          0x0000000000000000        0x0 contiki-wismote.a(tcpip.o)
 .data          0x0000000000000000        0x0 contiki-wismote.a(tcpip.o)
 .bss           0x0000000000000000        0x0 contiki-wismote.a(tcpip.o)
 .far.text.tcp_unlisten
                0x0000000000000000       0x26 contiki-wismote.a(tcpip.o)
 .far.text.tcp_listen
                0x0000000000000000       0x24 contiki-wismote.a(tcpip.o)
 .far.text.tcp_attach
                0x0000000000000000        0xc contiki-wismote.a(tcpip.o)
 .far.text.udp_attach
                0x0000000000000000        0xc contiki-wismote.a(tcpip.o)
 .far.text.udp_broadcast_new
                0x0000000000000000       0x46 contiki-wismote.a(tcpip.o)
 .far.text.tcpip_poll_udp
                0x0000000000000000        0xe contiki-wismote.a(tcpip.o)
 .far.text.tcpip_poll_tcp
                0x0000000000000000        0xe contiki-wismote.a(tcpip.o)
 .far.text.tcp_connect
                0x0000000000000000       0x22 contiki-wismote.a(tcpip.o)
 .text          0x0000000000000000        0x0 contiki-wismote.a(uip-debug.o)
 .data          0x0000000000000000        0x0 contiki-wismote.a(uip-debug.o)
 .bss           0x0000000000000000        0x0 contiki-wismote.a(uip-debug.o)
 .text          0x0000000000000000        0x0 contiki-wismote.a(rpl.o)
 .data          0x0000000000000000        0x0 contiki-wismote.a(rpl.o)
 .bss           0x0000000000000000        0x0 contiki-wismote.a(rpl.o)
 .far.text.rpl_set_mode
                0x0000000000000000       0x4c contiki-wismote.a(rpl.o)
 .text          0x0000000000000000        0x0 contiki-wismote.a(rpl-dag.o)
 .data          0x0000000000000000        0x0 contiki-wismote.a(rpl-dag.o)
 .bss           0x0000000000000000        0x0 contiki-wismote.a(rpl-dag.o)
 .far.text.rpl_get_nbr
                0x0000000000000000       0x18 contiki-wismote.a(rpl-dag.o)
 .rodata.rpl_print_neighbor_list
                0x0000000000000000       0x82 contiki-wismote.a(rpl-dag.o)
 .far.text.rpl_print_neighbor_list
                0x0000000000000000      0x110 contiki-wismote.a(rpl-dag.o)
 .far.text.rpl_has_downward_route
                0x0000000000000000       0x22 contiki-wismote.a(rpl-dag.o)
 .far.text.rpl_get_dag
                0x0000000000000000       0x56 contiki-wismote.a(rpl-dag.o)
 .far.text.rpl_free_instance
                0x0000000000000000       0x6e contiki-wismote.a(rpl-dag.o)
 .text          0x0000000000000000        0x0 contiki-wismote.a(rpl-ext-header.)
 .data          0x0000000000000000        0x0 contiki-wismote.a(rpl-ext-header.)
 .bss           0x0000000000000000        0x0 contiki-wismote.a(rpl-ext-header.)
 .text          0x0000000000000000        0x0 contiki-wismote.a(rpl-icmp6.o)
 .data          0x0000000000000000        0x0 contiki-wismote.a(rpl-icmp6.o)
 .bss           0x0000000000000000        0x0 contiki-wismote.a(rpl-icmp6.o)
 .far.text.dao_ack_output
                0x0000000000000000        0x2 contiki-wismote.a(rpl-icmp6.o)
 .text          0x0000000000000000        0x0 contiki-wismote.a(rpl-mrhof.o)
 .data          0x0000000000000000        0x0 contiki-wismote.a(rpl-mrhof.o)
 .bss           0x0000000000000000        0x0 contiki-wismote.a(rpl-mrhof.o)
 .text          0x0000000000000000        0x0 contiki-wismote.a(rpl-of0.o)
 .data          0x0000000000000000        0x0 contiki-wismote.a(rpl-of0.o)
 .bss           0x0000000000000000        0x0 contiki-wismote.a(rpl-of0.o)
 .text          0x0000000000000000        0x0 contiki-wismote.a(rpl-timers.o)
 .data          0x0000000000000000        0x0 contiki-wismote.a(rpl-timers.o)
 .bss           0x0000000000000000        0x0 contiki-wismote.a(rpl-timers.o)
 .far.text.rpl_schedule_dao_immediately
                0x0000000000000000        0xa contiki-wismote.a(rpl-timers.o)
 .far.text.rpl_cancel_dao
                0x0000000000000000       0x1a contiki-wismote.a(rpl-timers.o)
 .text          0x0000000000000000        0x0 contiki-wismote.a(linkaddr.o)
 .data          0x0000000000000000        0x0 contiki-wismote.a(linkaddr.o)
 .bss           0x0000000000000000        0x0 contiki-wismote.a(linkaddr.o)
 .text          0x0000000000000000        0x0 contiki-wismote.a(link-stats.o)
 .data          0x0000000000000000        0x0 contiki-wismote.a(link-stats.o)
 .bss           0x0000000000000000        0x0 contiki-wismote.a(link-stats.o)
 .rodata.guess_etx_from_rssi
                0x0000000000000000       0x14 contiki-wismote.a(link-stats.o)
 .far.text.guess_etx_from_rssi
                0x0000000000000000       0x50 contiki-wismote.a(link-stats.o)
 .text          0x0000000000000000        0x0 contiki-wismote.a(nbr-table.o)
 .data          0x0000000000000000        0x0 contiki-wismote.a(nbr-table.o)
 .bss           0x0000000000000000        0x0 contiki-wismote.a(nbr-table.o)
 .far.text.nbr_table_update_lladdr
                0x0000000000000000       0x48 contiki-wismote.a(nbr-table.o)
 .text          0x0000000000000000        0x0 contiki-wismote.a(net-debug.o)
 .data          0x0000000000000000        0x0 contiki-wismote.a(net-debug.o)
 .bss           0x0000000000000000        0x0 contiki-wismote.a(net-debug.o)
 .text          0x0000000000000000        0x0 contiki-wismote.a(packetbuf.o)
 .data          0x0000000000000000        0x0 contiki-wismote.a(packetbuf.o)
 .bss           0x0000000000000000        0x0 contiki-wismote.a(packetbuf.o)
 .far.text.packetbuf_compact
                0x0000000000000000       0x3c contiki-wismote.a(packetbuf.o)
 .text          0x0000000000000000        0x0 contiki-wismote.a(queuebuf.o)
 .data          0x0000000000000000        0x0 contiki-wismote.a(queuebuf.o)
 .bss           0x0000000000000000        0x0 contiki-wismote.a(queuebuf.o)
 .far.text.queuebuf_dataptr
                0x0000000000000000       0x1c contiki-wismote.a(queuebuf.o)
 .far.text.queuebuf_datalen
                0x0000000000000000        0x8 contiki-wismote.a(queuebuf.o)
 .far.text.queuebuf_addr
                0x0000000000000000        0xe contiki-wismote.a(queuebuf.o)
 .far.text.queuebuf_debug_print
                0x0000000000000000        0x2 contiki-wismote.a(queuebuf.o)
 .text          0x0000000000000000        0x0 contiki-wismote.a(csma.o)
 .data          0x0000000000000000        0x0 contiki-wismote.a(csma.o)
 .bss           0x0000000000000000        0x0 contiki-wismote.a(csma.o)
 .text          0x0000000000000000        0x0 contiki-wismote.a(framer-802154.o)
 .data          0x0000000000000000        0x0 contiki-wismote.a(framer-802154.o)
 .bss           0x0000000000000000        0x0 contiki-wismote.a(framer-802154.o)
 .text          0x0000000000000000        0x0 contiki-wismote.a(mac.o)
 .data          0x0000000000000000        0x0 contiki-wismote.a(mac.o)
 .bss           0x0000000000000000        0x0 contiki-wismote.a(mac.o)
 .text          0x0000000000000000        0x0 contiki-wismote.a(contikimac.o)
 .data          0x0000000000000000        0x0 contiki-wismote.a(contikimac.o)
 .bss           0x0000000000000000        0x0 contiki-wismote.a(contikimac.o)
 .far.text.contikimac_debug_print
                0x0000000000000000        0x4 contiki-wismote.a(contikimac.o)
 .text          0x0000000000000000        0x0 contiki-wismote.a(nullsec.o)
 .data          0x0000000000000000        0x0 contiki-wismote.a(nullsec.o)
 .bss           0x0000000000000000        0x0 contiki-wismote.a(nullsec.o)
 .text          0x0000000000000000        0x0 contiki-wismote.a(spi.o)
 .data          0x0000000000000000        0x0 contiki-wismote.a(spi.o)
 .bss           0x0000000000000000        0x0 contiki-wismote.a(spi.o)
 .bss.spi_busy  0x0000000000000000        0x1 contiki-wismote.a(spi.o)
 .text          0x0000000000000000        0x0 contiki-wismote.a(stimer.o)
 .data          0x0000000000000000        0x0 contiki-wismote.a(stimer.o)
 .bss           0x0000000000000000        0x0 contiki-wismote.a(stimer.o)
 .far.text.stimer_reset
                0x0000000000000000        0xe contiki-wismote.a(stimer.o)
 .far.text.stimer_restart
                0x0000000000000000       0x14 contiki-wismote.a(stimer.o)
 .far.text.stimer_remaining
                0x0000000000000000       0x24 contiki-wismote.a(stimer.o)
 .far.text.stimer_elapsed
                0x0000000000000000       0x12 contiki-wismote.a(stimer.o)
 .text          0x0000000000000000        0x0 contiki-wismote.a(memb.o)
 .data          0x0000000000000000        0x0 contiki-wismote.a(memb.o)
 .bss           0x0000000000000000        0x0 contiki-wismote.a(memb.o)
 .text          0x0000000000000000        0x0 contiki-wismote.a(rpl-nbr-policy.)
 .data          0x0000000000000000        0x0 contiki-wismote.a(rpl-nbr-policy.)
 .bss           0x0000000000000000        0x0 contiki-wismote.a(rpl-nbr-policy.)
 .text          0x0000000000000000        0x0 contiki-wismote.a(frame802154.o)
 .data          0x0000000000000000        0x0 contiki-wismote.a(frame802154.o)
 .bss           0x0000000000000000        0x0 contiki-wismote.a(frame802154.o)
 .far.text.frame802154_set_pan_id
                0x0000000000000000        0x6 contiki-wismote.a(frame802154.o)
 .far.text.frame802154_check_dest_panid
                0x0000000000000000       0x36 contiki-wismote.a(frame802154.o)
 .far.text.frame802154_extract_linkaddr
                0x0000000000000000       0x8c contiki-wismote.a(frame802154.o)
 .text          0x0000000000000000        0x0 contiki-wismote.a(mac-sequence.o)
 .data          0x0000000000000000        0x0 contiki-wismote.a(mac-sequence.o)
 .bss           0x0000000000000000        0x0 contiki-wismote.a(mac-sequence.o)
 .text          0x0000000000000000        0x0 /opt/compilers/mspgcc-4.7.3/bin/../lib/gcc/msp430/4.7.3/../../../../msp430/lib/mcpu-430x/mmpy-16/msr20/mc20/libm.a(ef_exp.o)
 .data          0x0000000000000000        0x0 /opt/compilers/mspgcc-4.7.3/bin/../lib/gcc/msp430/4.7.3/../../../../msp430/lib/mcpu-430x/mmpy-16/msr20/mc20/libm.a(ef_exp.o)
 .bss           0x0000000000000000        0x0 /opt/compilers/mspgcc-4.7.3/bin/../lib/gcc/msp430/4.7.3/../../../../msp430/lib/mcpu-430x/mmpy-16/msr20/mc20/libm.a(ef_exp.o)
 .text          0x0000000000000000        0x0 /opt/compilers/mspgcc-4.7.3/bin/../lib/gcc/msp430/4.7.3/mcpu-430x/mmpy-16/msr20/mc20/libgcc.a(_udivmod16.o)
 .data          0x0000000000000000        0x0 /opt/compilers/mspgcc-4.7.3/bin/../lib/gcc/msp430/4.7.3/mcpu-430x/mmpy-16/msr20/mc20/libgcc.a(_udivmod16.o)
 .bss           0x0000000000000000        0x0 /opt/compilers/mspgcc-4.7.3/bin/../lib/gcc/msp430/4.7.3/mcpu-430x/mmpy-16/msr20/mc20/libgcc.a(_udivmod16.o)
 .text          0x0000000000000000        0x0 /opt/compilers/mspgcc-4.7.3/bin/../lib/gcc/msp430/4.7.3/mcpu-430x/mmpy-16/msr20/mc20/libgcc.a(_divmod16.o)
 .data          0x0000000000000000        0x0 /opt/compilers/mspgcc-4.7.3/bin/../lib/gcc/msp430/4.7.3/mcpu-430x/mmpy-16/msr20/mc20/libgcc.a(_divmod16.o)
 .bss           0x0000000000000000        0x0 /opt/compilers/mspgcc-4.7.3/bin/../lib/gcc/msp430/4.7.3/mcpu-430x/mmpy-16/msr20/mc20/libgcc.a(_divmod16.o)
 .text          0x0000000000000000        0x0 /opt/compilers/mspgcc-4.7.3/bin/../lib/gcc/msp430/4.7.3/mcpu-430x/mmpy-16/msr20/mc20/libgcc.a(_udivmod32.o)
 .data          0x0000000000000000        0x0 /opt/compilers/mspgcc-4.7.3/bin/../lib/gcc/msp430/4.7.3/mcpu-430x/mmpy-16/msr20/mc20/libgcc.a(_udivmod32.o)
 .bss           0x0000000000000000        0x0 /opt/compilers/mspgcc-4.7.3/bin/../lib/gcc/msp430/4.7.3/mcpu-430x/mmpy-16/msr20/mc20/libgcc.a(_udivmod32.o)
 .text          0x0000000000000000        0x0 /opt/compilers/mspgcc-4.7.3/bin/../lib/gcc/msp430/4.7.3/mcpu-430x/mmpy-16/msr20/mc20/libgcc.a(_divmod32.o)
 .data          0x0000000000000000        0x0 /opt/compilers/mspgcc-4.7.3/bin/../lib/gcc/msp430/4.7.3/mcpu-430x/mmpy-16/msr20/mc20/libgcc.a(_divmod32.o)
 .bss           0x0000000000000000        0x0 /opt/compilers/mspgcc-4.7.3/bin/../lib/gcc/msp430/4.7.3/mcpu-430x/mmpy-16/msr20/mc20/libgcc.a(_divmod32.o)
 .text          0x0000000000000000        0x0 /opt/compilers/mspgcc-4.7.3/bin/../lib/gcc/msp430/4.7.3/mcpu-430x/mmpy-16/msr20/mc20/libgcc.a(_fixunssfsi.o)
 .data          0x0000000000000000        0x0 /opt/compilers/mspgcc-4.7.3/bin/../lib/gcc/msp430/4.7.3/mcpu-430x/mmpy-16/msr20/mc20/libgcc.a(_fixunssfsi.o)
 .bss           0x0000000000000000        0x0 /opt/compilers/mspgcc-4.7.3/bin/../lib/gcc/msp430/4.7.3/mcpu-430x/mmpy-16/msr20/mc20/libgcc.a(_fixunssfsi.o)
 .text          0x0000000000000000        0x0 /opt/compilers/mspgcc-4.7.3/bin/../lib/gcc/msp430/4.7.3/mcpu-430x/mmpy-16/msr20/mc20/libgcc.a(_addsub_sf.o)
 .data          0x0000000000000000        0x0 /opt/compilers/mspgcc-4.7.3/bin/../lib/gcc/msp430/4.7.3/mcpu-430x/mmpy-16/msr20/mc20/libgcc.a(_addsub_sf.o)
 .bss           0x0000000000000000        0x0 /opt/compilers/mspgcc-4.7.3/bin/../lib/gcc/msp430/4.7.3/mcpu-430x/mmpy-16/msr20/mc20/libgcc.a(_addsub_sf.o)
 .text          0x0000000000000000        0x0 /opt/compilers/mspgcc-4.7.3/bin/../lib/gcc/msp430/4.7.3/mcpu-430x/mmpy-16/msr20/mc20/libgcc.a(_mul_sf.o)
 .data          0x0000000000000000        0x0 /opt/compilers/mspgcc-4.7.3/bin/../lib/gcc/msp430/4.7.3/mcpu-430x/mmpy-16/msr20/mc20/libgcc.a(_mul_sf.o)
 .bss           0x0000000000000000        0x0 /opt/compilers/mspgcc-4.7.3/bin/../lib/gcc/msp430/4.7.3/mcpu-430x/mmpy-16/msr20/mc20/libgcc.a(_mul_sf.o)
 .text          0x0000000000000000        0x0 /opt/compilers/mspgcc-4.7.3/bin/../lib/gcc/msp430/4.7.3/mcpu-430x/mmpy-16/msr20/mc20/libgcc.a(_div_sf.o)
 .data          0x0000000000000000        0x0 /opt/compilers/mspgcc-4.7.3/bin/../lib/gcc/msp430/4.7.3/mcpu-430x/mmpy-16/msr20/mc20/libgcc.a(_div_sf.o)
 .bss           0x0000000000000000        0x0 /opt/compilers/mspgcc-4.7.3/bin/../lib/gcc/msp430/4.7.3/mcpu-430x/mmpy-16/msr20/mc20/libgcc.a(_div_sf.o)
 .text          0x0000000000000000        0x0 /opt/compilers/mspgcc-4.7.3/bin/../lib/gcc/msp430/4.7.3/mcpu-430x/mmpy-16/msr20/mc20/libgcc.a(_gt_sf.o)
 .data          0x0000000000000000        0x0 /opt/compilers/mspgcc-4.7.3/bin/../lib/gcc/msp430/4.7.3/mcpu-430x/mmpy-16/msr20/mc20/libgcc.a(_gt_sf.o)
 .bss           0x0000000000000000        0x0 /opt/compilers/mspgcc-4.7.3/bin/../lib/gcc/msp430/4.7.3/mcpu-430x/mmpy-16/msr20/mc20/libgcc.a(_gt_sf.o)
 .text          0x0000000000000000        0x0 /opt/compilers/mspgcc-4.7.3/bin/../lib/gcc/msp430/4.7.3/mcpu-430x/mmpy-16/msr20/mc20/libgcc.a(_ge_sf.o)
 .data          0x0000000000000000        0x0 /opt/compilers/mspgcc-4.7.3/bin/../lib/gcc/msp430/4.7.3/mcpu-430x/mmpy-16/msr20/mc20/libgcc.a(_ge_sf.o)
 .bss           0x0000000000000000        0x0 /opt/compilers/mspgcc-4.7.3/bin/../lib/gcc/msp430/4.7.3/mcpu-430x/mmpy-16/msr20/mc20/libgcc.a(_ge_sf.o)
 .text          0x0000000000000000        0x0 /opt/compilers/mspgcc-4.7.3/bin/../lib/gcc/msp430/4.7.3/mcpu-430x/mmpy-16/msr20/mc20/libgcc.a(_si_to_sf.o)
 .data          0x0000000000000000        0x0 /opt/compilers/mspgcc-4.7.3/bin/../lib/gcc/msp430/4.7.3/mcpu-430x/mmpy-16/msr20/mc20/libgcc.a(_si_to_sf.o)
 .bss           0x0000000000000000        0x0 /opt/compilers/mspgcc-4.7.3/bin/../lib/gcc/msp430/4.7.3/mcpu-430x/mmpy-16/msr20/mc20/libgcc.a(_si_to_sf.o)
 .text          0x0000000000000000        0x0 /opt/compilers/mspgcc-4.7.3/bin/../lib/gcc/msp430/4.7.3/mcpu-430x/mmpy-16/msr20/mc20/libgcc.a(_sf_to_si.o)
 .data          0x0000000000000000        0x0 /opt/compilers/mspgcc-4.7.3/bin/../lib/gcc/msp430/4.7.3/mcpu-430x/mmpy-16/msr20/mc20/libgcc.a(_sf_to_si.o)
 .bss           0x0000000000000000        0x0 /opt/compilers/mspgcc-4.7.3/bin/../lib/gcc/msp430/4.7.3/mcpu-430x/mmpy-16/msr20/mc20/libgcc.a(_sf_to_si.o)
 .text          0x0000000000000000        0x0 /opt/compilers/mspgcc-4.7.3/bin/../lib/gcc/msp430/4.7.3/mcpu-430x/mmpy-16/msr20/mc20/libgcc.a(_thenan_sf.o)
 .data          0x0000000000000000        0x0 /opt/compilers/mspgcc-4.7.3/bin/../lib/gcc/msp430/4.7.3/mcpu-430x/mmpy-16/msr20/mc20/libgcc.a(_thenan_sf.o)
 .bss           0x0000000000000000        0x0 /opt/compilers/mspgcc-4.7.3/bin/../lib/gcc/msp430/4.7.3/mcpu-430x/mmpy-16/msr20/mc20/libgcc.a(_thenan_sf.o)
 .text          0x0000000000000000        0x0 /opt/compilers/mspgcc-4.7.3/bin/../lib/gcc/msp430/4.7.3/mcpu-430x/mmpy-16/msr20/mc20/libgcc.a(_usi_to_sf.o)
 .data          0x0000000000000000        0x0 /opt/compilers/mspgcc-4.7.3/bin/../lib/gcc/msp430/4.7.3/mcpu-430x/mmpy-16/msr20/mc20/libgcc.a(_usi_to_sf.o)
 .bss           0x0000000000000000        0x0 /opt/compilers/mspgcc-4.7.3/bin/../lib/gcc/msp430/4.7.3/mcpu-430x/mmpy-16/msr20/mc20/libgcc.a(_usi_to_sf.o)
 .text          0x0000000000000000        0x0 /opt/compilers/mspgcc-4.7.3/bin/../lib/gcc/msp430/4.7.3/mcpu-430x/mmpy-16/msr20/mc20/libgcc.a(_clzsi2.o)
 .data          0x0000000000000000        0x0 /opt/compilers/mspgcc-4.7.3/bin/../lib/gcc/msp430/4.7.3/mcpu-430x/mmpy-16/msr20/mc20/libgcc.a(_clzsi2.o)
 .bss           0x0000000000000000        0x0 /opt/compilers/mspgcc-4.7.3/bin/../lib/gcc/msp430/4.7.3/mcpu-430x/mmpy-16/msr20/mc20/libgcc.a(_clzsi2.o)
 .text          0x0000000000000000        0x0 /opt/compilers/mspgcc-4.7.3/bin/../lib/gcc/msp430/4.7.3/mcpu-430x/mmpy-16/msr20/mc20/libgcc.a(_pack_sf.o)
 .data          0x0000000000000000        0x0 /opt/compilers/mspgcc-4.7.3/bin/../lib/gcc/msp430/4.7.3/mcpu-430x/mmpy-16/msr20/mc20/libgcc.a(_pack_sf.o)
 .bss           0x0000000000000000        0x0 /opt/compilers/mspgcc-4.7.3/bin/../lib/gcc/msp430/4.7.3/mcpu-430x/mmpy-16/msr20/mc20/libgcc.a(_pack_sf.o)
 .text          0x0000000000000000        0x0 /opt/compilers/mspgcc-4.7.3/bin/../lib/gcc/msp430/4.7.3/mcpu-430x/mmpy-16/msr20/mc20/libgcc.a(_unpack_sf.o)
 .data          0x0000000000000000        0x0 /opt/compilers/mspgcc-4.7.3/bin/../lib/gcc/msp430/4.7.3/mcpu-430x/mmpy-16/msr20/mc20/libgcc.a(_unpack_sf.o)
 .bss           0x0000000000000000        0x0 /opt/compilers/mspgcc-4.7.3/bin/../lib/gcc/msp430/4.7.3/mcpu-430x/mmpy-16/msr20/mc20/libgcc.a(_unpack_sf.o)
 .text          0x0000000000000000        0x0 /opt/compilers/mspgcc-4.7.3/bin/../lib/gcc/msp430/4.7.3/mcpu-430x/mmpy-16/msr20/mc20/libgcc.a(_fpcmp_parts_sf.o)
 .data          0x0000000000000000        0x0 /opt/compilers/mspgcc-4.7.3/bin/../lib/gcc/msp430/4.7.3/mcpu-430x/mmpy-16/msr20/mc20/libgcc.a(_fpcmp_parts_sf.o)
 .bss           0x0000000000000000        0x0 /opt/compilers/mspgcc-4.7.3/bin/../lib/gcc/msp430/4.7.3/mcpu-430x/mmpy-16/msr20/mc20/libgcc.a(_fpcmp_parts_sf.o)
 .text          0x0000000000000000        0x0 /opt/compilers/mspgcc-4.7.3/bin/../lib/gcc/msp430/4.7.3/mcpu-430x/mmpy-16/msr20/mc20/libgcc.a(_clz.o)
 .data          0x0000000000000000        0x0 /opt/compilers/mspgcc-4.7.3/bin/../lib/gcc/msp430/4.7.3/mcpu-430x/mmpy-16/msr20/mc20/libgcc.a(_clz.o)
 .bss           0x0000000000000000        0x0 /opt/compilers/mspgcc-4.7.3/bin/../lib/gcc/msp430/4.7.3/mcpu-430x/mmpy-16/msr20/mc20/libgcc.a(_clz.o)
 .text          0x0000000000000000        0x0 /opt/compilers/mspgcc-4.7.3/bin/../lib/gcc/msp430/4.7.3/../../../../msp430/lib/mcpu-430x/mmpy-16/msr20/mc20/libc.a(printf.o)
 .data          0x0000000000000000        0x0 /opt/compilers/mspgcc-4.7.3/bin/../lib/gcc/msp430/4.7.3/../../../../msp430/lib/mcpu-430x/mmpy-16/msr20/mc20/libc.a(printf.o)
 .bss           0x0000000000000000        0x0 /opt/compilers/mspgcc-4.7.3/bin/../lib/gcc/msp430/4.7.3/../../../../msp430/lib/mcpu-430x/mmpy-16/msr20/mc20/libc.a(printf.o)
 .any.text.vprintf
                0x0000000000000000        0xe /opt/compilers/mspgcc-4.7.3/bin/../lib/gcc/msp430/4.7.3/../../../../msp430/lib/mcpu-430x/mmpy-16/msr20/mc20/libc.a(printf.o)
 .text          0x0000000000000000        0x0 /opt/compilers/mspgcc-4.7.3/bin/../lib/gcc/msp430/4.7.3/../../../../msp430/lib/mcpu-430x/mmpy-16/msr20/mc20/libc.a(vuprintf.o)
 .data          0x0000000000000000        0x0 /opt/compilers/mspgcc-4.7.3/bin/../lib/gcc/msp430/4.7.3/../../../../msp430/lib/mcpu-430x/mmpy-16/msr20/mc20/libc.a(vuprintf.o)
 .bss           0x0000000000000000        0x0 /opt/compilers/mspgcc-4.7.3/bin/../lib/gcc/msp430/4.7.3/../../../../msp430/lib/mcpu-430x/mmpy-16/msr20/mc20/libc.a(vuprintf.o)
 .text          0x0000000000000000        0x0 /opt/compilers/mspgcc-4.7.3/bin/../lib/gcc/msp430/4.7.3/../../../../msp430/lib/mcpu-430x/mmpy-16/msr20/mc20/libc.a(puts.o)
 .data          0x0000000000000000        0x0 /opt/compilers/mspgcc-4.7.3/bin/../lib/gcc/msp430/4.7.3/../../../../msp430/lib/mcpu-430x/mmpy-16/msr20/mc20/libc.a(puts.o)
 .bss           0x0000000000000000        0x0 /opt/compilers/mspgcc-4.7.3/bin/../lib/gcc/msp430/4.7.3/../../../../msp430/lib/mcpu-430x/mmpy-16/msr20/mc20/libc.a(puts.o)
 .text          0x0000000000000000        0x0 /opt/compilers/mspgcc-4.7.3/bin/../lib/gcc/msp430/4.7.3/../../../../msp430/lib/mcpu-430x/mmpy-16/msr20/mc20/libc.a(rand.o)
 .data          0x0000000000000000        0x0 /opt/compilers/mspgcc-4.7.3/bin/../lib/gcc/msp430/4.7.3/../../../../msp430/lib/mcpu-430x/mmpy-16/msr20/mc20/libc.a(rand.o)
 .bss           0x0000000000000000        0x0 /opt/compilers/mspgcc-4.7.3/bin/../lib/gcc/msp430/4.7.3/../../../../msp430/lib/mcpu-430x/mmpy-16/msr20/mc20/libc.a(rand.o)
 .any.text.rand_r
                0x0000000000000000       0x24 /opt/compilers/mspgcc-4.7.3/bin/../lib/gcc/msp430/4.7.3/../../../../msp430/lib/mcpu-430x/mmpy-16/msr20/mc20/libc.a(rand.o)
 .text          0x0000000000000000        0x0 /opt/compilers/mspgcc-4.7.3/bin/../lib/gcc/msp430/4.7.3/../../../../msp430/lib/mcpu-430x/mmpy-16/msr20/mc20/libc.a(strncmp.o)
 .data          0x0000000000000000        0x0 /opt/compilers/mspgcc-4.7.3/bin/../lib/gcc/msp430/4.7.3/../../../../msp430/lib/mcpu-430x/mmpy-16/msr20/mc20/libc.a(strncmp.o)
 .bss           0x0000000000000000        0x0 /opt/compilers/mspgcc-4.7.3/bin/../lib/gcc/msp430/4.7.3/../../../../msp430/lib/mcpu-430x/mmpy-16/msr20/mc20/libc.a(strncmp.o)
 .any.text.strncmp
                0x0000000000000000       0x2a /opt/compilers/mspgcc-4.7.3/bin/../lib/gcc/msp430/4.7.3/../../../../msp430/lib/mcpu-430x/mmpy-16/msr20/mc20/libc.a(strncmp.o)
 .debug_frame   0x0000000000000000       0x2c /opt/compilers/mspgcc-4.7.3/bin/../lib/gcc/msp430/4.7.3/../../../../msp430/lib/mcpu-430x/mmpy-16/msr20/mc20/libc.a(strncmp.o)
 .debug_info    0x0000000000000000       0xd8 /opt/compilers/mspgcc-4.7.3/bin/../lib/gcc/msp430/4.7.3/../../../../msp430/lib/mcpu-430x/mmpy-16/msr20/mc20/libc.a(strncmp.o)
 .debug_abbrev  0x0000000000000000       0x72 /opt/compilers/mspgcc-4.7.3/bin/../lib/gcc/msp430/4.7.3/../../../../msp430/lib/mcpu-430x/mmpy-16/msr20/mc20/libc.a(strncmp.o)
 .debug_loc     0x0000000000000000       0x7a /opt/compilers/mspgcc-4.7.3/bin/../lib/gcc/msp430/4.7.3/../../../../msp430/lib/mcpu-430x/mmpy-16/msr20/mc20/libc.a(strncmp.o)
 .debug_aranges
                0x0000000000000000       0x20 /opt/compilers/mspgcc-4.7.3/bin/../lib/gcc/msp430/4.7.3/../../../../msp430/lib/mcpu-430x/mmpy-16/msr20/mc20/libc.a(strncmp.o)
 .debug_ranges  0x0000000000000000       0x10 /opt/compilers/mspgcc-4.7.3/bin/../lib/gcc/msp430/4.7.3/../../../../msp430/lib/mcpu-430x/mmpy-16/msr20/mc20/libc.a(strncmp.o)
 .debug_line    0x0000000000000000       0x93 /opt/compilers/mspgcc-4.7.3/bin/../lib/gcc/msp430/4.7.3/../../../../msp430/lib/mcpu-430x/mmpy-16/msr20/mc20/libc.a(strncmp.o)
 .debug_str     0x0000000000000000      0x113 /opt/compilers/mspgcc-4.7.3/bin/../lib/gcc/msp430/4.7.3/../../../../msp430/lib/mcpu-430x/mmpy-16/msr20/mc20/libc.a(strncmp.o)
 .comment       0x0000000000000000       0x31 /opt/compilers/mspgcc-4.7.3/bin/../lib/gcc/msp430/4.7.3/../../../../msp430/lib/mcpu-430x/mmpy-16/msr20/mc20/libc.a(strncmp.o)
 .gnu.attributes
                0x0000000000000000       0x11 /opt/compilers/mspgcc-4.7.3/bin/../lib/gcc/msp430/4.7.3/../../../../msp430/lib/mcpu-430x/mmpy-16/msr20/mc20/libc.a(strncmp.o)
 .text          0x0000000000000000        0x0 /opt/compilers/mspgcc-4.7.3/bin/../lib/gcc/msp430/4.7.3/../../../../msp430/lib/mcpu-430x/mmpy-16/msr20/mc20/libc.a(memcmp.o)
 .data          0x0000000000000000        0x0 /opt/compilers/mspgcc-4.7.3/bin/../lib/gcc/msp430/4.7.3/../../../../msp430/lib/mcpu-430x/mmpy-16/msr20/mc20/libc.a(memcmp.o)
 .bss           0x0000000000000000        0x0 /opt/compilers/mspgcc-4.7.3/bin/../lib/gcc/msp430/4.7.3/../../../../msp430/lib/mcpu-430x/mmpy-16/msr20/mc20/libc.a(memcmp.o)
 .text          0x0000000000000000        0x0 /opt/compilers/mspgcc-4.7.3/bin/../lib/gcc/msp430/4.7.3/../../../../msp430/lib/mcpu-430x/mmpy-16/msr20/mc20/libc.a(memcpy.o)
 .data          0x0000000000000000        0x0 /opt/compilers/mspgcc-4.7.3/bin/../lib/gcc/msp430/4.7.3/../../../../msp430/lib/mcpu-430x/mmpy-16/msr20/mc20/libc.a(memcpy.o)
 .bss           0x0000000000000000        0x0 /opt/compilers/mspgcc-4.7.3/bin/../lib/gcc/msp430/4.7.3/../../../../msp430/lib/mcpu-430x/mmpy-16/msr20/mc20/libc.a(memcpy.o)
 .text          0x0000000000000000        0x0 /opt/compilers/mspgcc-4.7.3/bin/../lib/gcc/msp430/4.7.3/../../../../msp430/lib/mcpu-430x/mmpy-16/msr20/mc20/libc.a(memmove.o)
 .data          0x0000000000000000        0x0 /opt/compilers/mspgcc-4.7.3/bin/../lib/gcc/msp430/4.7.3/../../../../msp430/lib/mcpu-430x/mmpy-16/msr20/mc20/libc.a(memmove.o)
 .bss           0x0000000000000000        0x0 /opt/compilers/mspgcc-4.7.3/bin/../lib/gcc/msp430/4.7.3/../../../../msp430/lib/mcpu-430x/mmpy-16/msr20/mc20/libc.a(memmove.o)
 .text          0x0000000000000000        0x0 /opt/compilers/mspgcc-4.7.3/bin/../lib/gcc/msp430/4.7.3/../../../../msp430/lib/mcpu-430x/mmpy-16/msr20/mc20/libc.a(memset.o)
 .data          0x0000000000000000        0x0 /opt/compilers/mspgcc-4.7.3/bin/../lib/gcc/msp430/4.7.3/../../../../msp430/lib/mcpu-430x/mmpy-16/msr20/mc20/libc.a(memset.o)
 .bss           0x0000000000000000        0x0 /opt/compilers/mspgcc-4.7.3/bin/../lib/gcc/msp430/4.7.3/../../../../msp430/lib/mcpu-430x/mmpy-16/msr20/mc20/libc.a(memset.o)
 .text          0x0000000000000000        0x0 /opt/compilers/mspgcc-4.7.3/bin/../lib/gcc/msp430/4.7.3/mcpu-430x/mmpy-16/msr20/mc20/libgcc.a(_mulsi3.o)
 .data          0x0000000000000000        0x0 /opt/compilers/mspgcc-4.7.3/bin/../lib/gcc/msp430/4.7.3/mcpu-430x/mmpy-16/msr20/mc20/libgcc.a(_mulsi3.o)
 .bss           0x0000000000000000        0x0 /opt/compilers/mspgcc-4.7.3/bin/../lib/gcc/msp430/4.7.3/mcpu-430x/mmpy-16/msr20/mc20/libgcc.a(_mulsi3.o)
 .text          0x0000000000000000        0x0 /opt/compilers/mspgcc-4.7.3/bin/../lib/gcc/msp430/4.7.3/mcpu-430x/mmpy-16/msr20/mc20/libgcc.a(_udivmod64.o)
 .data          0x0000000000000000        0x0 /opt/compilers/mspgcc-4.7.3/bin/../lib/gcc/msp430/4.7.3/mcpu-430x/mmpy-16/msr20/mc20/libgcc.a(_udivmod64.o)
 .bss           0x0000000000000000        0x0 /opt/compilers/mspgcc-4.7.3/bin/../lib/gcc/msp430/4.7.3/mcpu-430x/mmpy-16/msr20/mc20/libgcc.a(_udivmod64.o)
 .text          0x0000000000000000        0x0 /opt/compilers/mspgcc-4.7.3/bin/../lib/gcc/msp430/4.7.3/mcpu-430x/mmpy-16/msr20/mc20/libcrt0.a(_reset_vector__.o)
 .data          0x0000000000000000        0x0 /opt/compilers/mspgcc-4.7.3/bin/../lib/gcc/msp430/4.7.3/mcpu-430x/mmpy-16/msr20/mc20/libcrt0.a(_reset_vector__.o)
 .bss           0x0000000000000000        0x0 /opt/compilers/mspgcc-4.7.3/bin/../lib/gcc/msp430/4.7.3/mcpu-430x/mmpy-16/msr20/mc20/libcrt0.a(_reset_vector__.o)
 .text          0x0000000000000000        0x0 /opt/compilers/mspgcc-4.7.3/bin/../lib/gcc/msp430/4.7.3/mcpu-430x/mmpy-16/msr20/mc20/libcrt0.a(__watchdog_support.o)
 .data          0x0000000000000000        0x0 /opt/compilers/mspgcc-4.7.3/bin/../lib/gcc/msp430/4.7.3/mcpu-430x/mmpy-16/msr20/mc20/libcrt0.a(__watchdog_support.o)
 .bss           0x0000000000000000        0x0 /opt/compilers/mspgcc-4.7.3/bin/../lib/gcc/msp430/4.7.3/mcpu-430x/mmpy-16/msr20/mc20/libcrt0.a(__watchdog_support.o)
 .text          0x0000000000000000        0x0 /opt/compilers/mspgcc-4.7.3/bin/../lib/gcc/msp430/4.7.3/mcpu-430x/mmpy-16/msr20/mc20/libcrt0.a(__init_stack.o)
 .data          0x0000000000000000        0x0 /opt/compilers/mspgcc-4.7.3/bin/../lib/gcc/msp430/4.7.3/mcpu-430x/mmpy-16/msr20/mc20/libcrt0.a(__init_stack.o)
 .bss           0x0000000000000000        0x0 /opt/compilers/mspgcc-4.7.3/bin/../lib/gcc/msp430/4.7.3/mcpu-430x/mmpy-16/msr20/mc20/libcrt0.a(__init_stack.o)
 .text          0x0000000000000000        0x0 /opt/compilers/mspgcc-4.7.3/bin/../lib/gcc/msp430/4.7.3/mcpu-430x/mmpy-16/msr20/mc20/libcrt0.a(__low_level_init.o)
 .data          0x0000000000000000        0x0 /opt/compilers/mspgcc-4.7.3/bin/../lib/gcc/msp430/4.7.3/mcpu-430x/mmpy-16/msr20/mc20/libcrt0.a(__low_level_init.o)
 .bss           0x0000000000000000        0x0 /opt/compilers/mspgcc-4.7.3/bin/../lib/gcc/msp430/4.7.3/mcpu-430x/mmpy-16/msr20/mc20/libcrt0.a(__low_level_init.o)
 .text          0x0000000000000000        0x0 /opt/compilers/mspgcc-4.7.3/bin/../lib/gcc/msp430/4.7.3/mcpu-430x/mmpy-16/msr20/mc20/libcrt0.a(_copy_data.o)
 .data          0x0000000000000000        0x0 /opt/compilers/mspgcc-4.7.3/bin/../lib/gcc/msp430/4.7.3/mcpu-430x/mmpy-16/msr20/mc20/libcrt0.a(_copy_data.o)
 .bss           0x0000000000000000        0x0 /opt/compilers/mspgcc-4.7.3/bin/../lib/gcc/msp430/4.7.3/mcpu-430x/mmpy-16/msr20/mc20/libcrt0.a(_copy_data.o)
 .text          0x0000000000000000        0x0 /opt/compilers/mspgcc-4.7.3/bin/../lib/gcc/msp430/4.7.3/mcpu-430x/mmpy-16/msr20/mc20/libcrt0.a(_clear_bss.o)
 .data          0x0000000000000000        0x0 /opt/compilers/mspgcc-4.7.3/bin/../lib/gcc/msp430/4.7.3/mcpu-430x/mmpy-16/msr20/mc20/libcrt0.a(_clear_bss.o)
 .bss           0x0000000000000000        0x0 /opt/compilers/mspgcc-4.7.3/bin/../lib/gcc/msp430/4.7.3/mcpu-430x/mmpy-16/msr20/mc20/libcrt0.a(_clear_bss.o)
 .text          0x0000000000000000        0x0 /opt/compilers/mspgcc-4.7.3/bin/../lib/gcc/msp430/4.7.3/mcpu-430x/mmpy-16/msr20/mc20/libcrt0.a(__stop_progExec__.o)
 .data          0x0000000000000000        0x0 /opt/compilers/mspgcc-4.7.3/bin/../lib/gcc/msp430/4.7.3/mcpu-430x/mmpy-16/msr20/mc20/libcrt0.a(__stop_progExec__.o)
 .bss           0x0000000000000000        0x0 /opt/compilers/mspgcc-4.7.3/bin/../lib/gcc/msp430/4.7.3/mcpu-430x/mmpy-16/msr20/mc20/libcrt0.a(__stop_progExec__.o)
 .text          0x0000000000000000        0x0 /opt/compilers/mspgcc-4.7.3/bin/../lib/gcc/msp430/4.7.3/mcpu-430x/mmpy-16/msr20/mc20/libcrt0.a(_endless_loop__.o)
 .data          0x0000000000000000        0x0 /opt/compilers/mspgcc-4.7.3/bin/../lib/gcc/msp430/4.7.3/mcpu-430x/mmpy-16/msr20/mc20/libcrt0.a(_endless_loop__.o)
 .bss           0x0000000000000000        0x0 /opt/compilers/mspgcc-4.7.3/bin/../lib/gcc/msp430/4.7.3/mcpu-430x/mmpy-16/msr20/mc20/libcrt0.a(_endless_loop__.o)
 .text          0x0000000000000000        0x0 /opt/compilers/mspgcc-4.7.3/bin/../lib/gcc/msp430/4.7.3/mcpu-430x/mmpy-16/msr20/mc20/libcrt0.a(_unexpected_.o)
 .data          0x0000000000000000        0x0 /opt/compilers/mspgcc-4.7.3/bin/../lib/gcc/msp430/4.7.3/mcpu-430x/mmpy-16/msr20/mc20/libcrt0.a(_unexpected_.o)
 .bss           0x0000000000000000        0x0 /opt/compilers/mspgcc-4.7.3/bin/../lib/gcc/msp430/4.7.3/mcpu-430x/mmpy-16/msr20/mc20/libcrt0.a(_unexpected_.o)

Memory Configuration

Name             Origin             Length             Attributes
sfr              0x0000000000000000 0x0000000000000010
peripheral_8bit  0x0000000000000010 0x00000000000000f0
peripheral_16bit 0x0000000000000100 0x0000000000000100
bsl              0x0000000000001000 0x0000000000000800
infomem          0x0000000000001800 0x0000000000000200
infod            0x0000000000001800 0x0000000000000080
infoc            0x0000000000001880 0x0000000000000080
infob            0x0000000000001900 0x0000000000000080
infoa            0x0000000000001980 0x0000000000000080
ram              0x0000000000001c00 0x0000000000004000 xw
rom              0x0000000000005c00 0x000000000000a380 xr
vectors          0x000000000000ff80 0x0000000000000080
far_rom          0x0000000000010000 0x0000000000035c00
ram2             0x0000000000000000 0x0000000000000000 xw
ram_mirror       0x0000000000000000 0x0000000000000000 xw
usbram           0x0000000000000000 0x0000000000000000 xw
*default*        0x0000000000000000 0xffffffffffffffff

Linker script and memory map

LOAD /opt/compilers/mspgcc-4.7.3/bin/../lib/gcc/msp430/4.7.3/mcpu-430x/mmpy-16/msr20/mc20/crt0ivtbl64.o
LOAD udp-server.co
LOAD obj_wismote/contiki-wismote-main.o
LOAD contiki-wismote.a
LOAD /opt/compilers/mspgcc-4.7.3/bin/../lib/gcc/msp430/4.7.3/../../../../msp430/lib/mcpu-430x/mmpy-16/msr20/mc20/libm.a
LOAD /opt/compilers/mspgcc-4.7.3/bin/../lib/gcc/msp430/4.7.3/mcpu-430x/mmpy-16/msr20/mc20/libgcc.a
LOAD /opt/compilers/mspgcc-4.7.3/bin/../lib/gcc/msp430/4.7.3/../../../../msp430/lib/mcpu-430x/mmpy-16/msr20/mc20/libc.a
LOAD /opt/compilers/mspgcc-4.7.3/bin/../lib/gcc/msp430/4.7.3/mcpu-430x/mmpy-16/msr20/mc20/libgcc.a
LOAD /opt/compilers/mspgcc-4.7.3/bin/../lib/gcc/msp430/4.7.3/mcpu-430x/mmpy-16/msr20/mc20/libcrt0.a
                0x0000000000000080                PROVIDE (__info_segment_size, 0x80)
                0x0000000000001800                PROVIDE (__infod, 0x1800)
                0x0000000000001880                PROVIDE (__infoc, 0x1880)
                0x0000000000001900                PROVIDE (__infob, 0x1900)
                0x0000000000001980                PROVIDE (__infoa, 0x1980)
                0x0000000000000700                __ADC12CTL0_L = 0x700
                0x0000000000000701                __ADC12CTL0_H = 0x701
                0x0000000000000700                __ADC12CTL0 = 0x700
                0x0000000000000702                __ADC12CTL1_L = 0x702
                0x0000000000000703                __ADC12CTL1_H = 0x703
                0x0000000000000702                __ADC12CTL1 = 0x702
                0x0000000000000704                __ADC12CTL2_L = 0x704
                0x0000000000000705                __ADC12CTL2_H = 0x705
                0x0000000000000704                __ADC12CTL2 = 0x704
                0x000000000000070a                __ADC12IFG_L = 0x70a
                0x000000000000070b                __ADC12IFG_H = 0x70b
                0x000000000000070a                __ADC12IFG = 0x70a
                0x000000000000070c                __ADC12IE_L = 0x70c
                0x000000000000070d                __ADC12IE_H = 0x70d
                0x000000000000070c                __ADC12IE = 0x70c
                0x000000000000070e                __ADC12IV_L = 0x70e
                0x000000000000070f                __ADC12IV_H = 0x70f
                0x000000000000070e                __ADC12IV = 0x70e
                0x0000000000000720                __ADC12MEM0_L = 0x720
                0x0000000000000721                __ADC12MEM0_H = 0x721
                0x0000000000000720                __ADC12MEM0 = 0x720
                0x0000000000000722                __ADC12MEM1_L = 0x722
                0x0000000000000723                __ADC12MEM1_H = 0x723
                0x0000000000000722                __ADC12MEM1 = 0x722
                0x0000000000000724                __ADC12MEM2_L = 0x724
                0x0000000000000725                __ADC12MEM2_H = 0x725
                0x0000000000000724                __ADC12MEM2 = 0x724
                0x0000000000000726                __ADC12MEM3_L = 0x726
                0x0000000000000727                __ADC12MEM3_H = 0x727
                0x0000000000000726                __ADC12MEM3 = 0x726
                0x0000000000000728                __ADC12MEM4_L = 0x728
                0x0000000000000729                __ADC12MEM4_H = 0x729
                0x0000000000000728                __ADC12MEM4 = 0x728
                0x000000000000072a                __ADC12MEM5_L = 0x72a
                0x000000000000072b                __ADC12MEM5_H = 0x72b
                0x000000000000072a                __ADC12MEM5 = 0x72a
                0x000000000000072c                __ADC12MEM6_L = 0x72c
                0x000000000000072d                __ADC12MEM6_H = 0x72d
                0x000000000000072c                __ADC12MEM6 = 0x72c
                0x000000000000072e                __ADC12MEM7_L = 0x72e
                0x000000000000072f                __ADC12MEM7_H = 0x72f
                0x000000000000072e                __ADC12MEM7 = 0x72e
                0x0000000000000730                __ADC12MEM8_L = 0x730
                0x0000000000000731                __ADC12MEM8_H = 0x731
                0x0000000000000730                __ADC12MEM8 = 0x730
                0x0000000000000732                __ADC12MEM9_L = 0x732
                0x0000000000000733                __ADC12MEM9_H = 0x733
                0x0000000000000732                __ADC12MEM9 = 0x732
                0x0000000000000734                __ADC12MEM10_L = 0x734
                0x0000000000000735                __ADC12MEM10_H = 0x735
                0x0000000000000734                __ADC12MEM10 = 0x734
                0x0000000000000736                __ADC12MEM11_L = 0x736
                0x0000000000000737                __ADC12MEM11_H = 0x737
                0x0000000000000736                __ADC12MEM11 = 0x736
                0x0000000000000738                __ADC12MEM12_L = 0x738
                0x0000000000000739                __ADC12MEM12_H = 0x739
                0x0000000000000738                __ADC12MEM12 = 0x738
                0x000000000000073a                __ADC12MEM13_L = 0x73a
                0x000000000000073b                __ADC12MEM13_H = 0x73b
                0x000000000000073a                __ADC12MEM13 = 0x73a
                0x000000000000073c                __ADC12MEM14_L = 0x73c
                0x000000000000073d                __ADC12MEM14_H = 0x73d
                0x000000000000073c                __ADC12MEM14 = 0x73c
                0x000000000000073e                __ADC12MEM15_L = 0x73e
                0x000000000000073f                __ADC12MEM15_H = 0x73f
                0x000000000000073e                __ADC12MEM15 = 0x73e
                0x0000000000000710                __ADC12MCTL0 = 0x710
                0x0000000000000711                __ADC12MCTL1 = 0x711
                0x0000000000000712                __ADC12MCTL2 = 0x712
                0x0000000000000713                __ADC12MCTL3 = 0x713
                0x0000000000000714                __ADC12MCTL4 = 0x714
                0x0000000000000715                __ADC12MCTL5 = 0x715
                0x0000000000000716                __ADC12MCTL6 = 0x716
                0x0000000000000717                __ADC12MCTL7 = 0x717
                0x0000000000000718                __ADC12MCTL8 = 0x718
                0x0000000000000719                __ADC12MCTL9 = 0x719
                0x000000000000071a                __ADC12MCTL10 = 0x71a
                0x000000000000071b                __ADC12MCTL11 = 0x71b
                0x000000000000071c                __ADC12MCTL12 = 0x71c
                0x000000000000071d                __ADC12MCTL13 = 0x71d
                0x000000000000071e                __ADC12MCTL14 = 0x71e
                0x000000000000071f                __ADC12MCTL15 = 0x71f
                0x0000000000000150                __CRCDI_L = 0x150
                0x0000000000000151                __CRCDI_H = 0x151
                0x0000000000000150                __CRCDI = 0x150
                0x0000000000000154                __CRCINIRES_L = 0x154
                0x0000000000000155                __CRCINIRES_H = 0x155
                0x0000000000000154                __CRCINIRES = 0x154
                0x0000000000000500                __DMACTL0_L = 0x500
                0x0000000000000501                __DMACTL0_H = 0x501
                0x0000000000000500                __DMACTL0 = 0x500
                0x0000000000000502                __DMACTL1_L = 0x502
                0x0000000000000503                __DMACTL1_H = 0x503
                0x0000000000000502                __DMACTL1 = 0x502
                0x0000000000000504                __DMACTL2_L = 0x504
                0x0000000000000505                __DMACTL2_H = 0x505
                0x0000000000000504                __DMACTL2 = 0x504
                0x0000000000000506                __DMACTL3_L = 0x506
                0x0000000000000507                __DMACTL3_H = 0x507
                0x0000000000000506                __DMACTL3 = 0x506
                0x0000000000000508                __DMACTL4_L = 0x508
                0x0000000000000509                __DMACTL4_H = 0x509
                0x0000000000000508                __DMACTL4 = 0x508
                0x000000000000050e                __DMAIV_L = 0x50e
                0x000000000000050f                __DMAIV_H = 0x50f
                0x000000000000050e                __DMAIV = 0x50e
                0x0000000000000510                __DMA0CTL_L = 0x510
                0x0000000000000511                __DMA0CTL_H = 0x511
                0x0000000000000510                __DMA0CTL = 0x510
                0x0000000000000512                __DMA0SA = 0x512
                0x0000000000000516                __DMA0DA = 0x516
                0x000000000000051a                __DMA0SZ = 0x51a
                0x0000000000000520                __DMA1CTL_L = 0x520
                0x0000000000000521                __DMA1CTL_H = 0x521
                0x0000000000000520                __DMA1CTL = 0x520
                0x0000000000000522                __DMA1SA = 0x522
                0x0000000000000526                __DMA1DA = 0x526
                0x000000000000052a                __DMA1SZ = 0x52a
                0x0000000000000530                __DMA2CTL_L = 0x530
                0x0000000000000531                __DMA2CTL_H = 0x531
                0x0000000000000530                __DMA2CTL = 0x530
                0x0000000000000532                __DMA2SA = 0x532
                0x0000000000000536                __DMA2DA = 0x536
                0x000000000000053a                __DMA2SZ = 0x53a
                0x0000000000000140                __FCTL1_L = 0x140
                0x0000000000000141                __FCTL1_H = 0x141
                0x0000000000000140                __FCTL1 = 0x140
                0x0000000000000144                __FCTL3_L = 0x144
                0x0000000000000145                __FCTL3_H = 0x145
                0x0000000000000144                __FCTL3 = 0x144
                0x0000000000000146                __FCTL4_L = 0x146
                0x0000000000000147                __FCTL4_H = 0x147
                0x0000000000000146                __FCTL4 = 0x146
                0x00000000000004c0                __MPY_L = 0x4c0
                0x00000000000004c1                __MPY_H = 0x4c1
                0x00000000000004c0                __MPY = 0x4c0
                0x00000000000004c2                __MPYS_L = 0x4c2
                0x00000000000004c3                __MPYS_H = 0x4c3
                0x00000000000004c2                __MPYS = 0x4c2
                0x00000000000004c4                __MAC_L = 0x4c4
                0x00000000000004c5                __MAC_H = 0x4c5
                0x00000000000004c4                __MAC = 0x4c4
                0x00000000000004c6                __MACS_L = 0x4c6
                0x00000000000004c7                __MACS_H = 0x4c7
                0x00000000000004c6                __MACS = 0x4c6
                0x00000000000004c8                __OP2_L = 0x4c8
                0x00000000000004c9                __OP2_H = 0x4c9
                0x00000000000004c8                __OP2 = 0x4c8
                0x00000000000004ca                __RESLO_L = 0x4ca
                0x00000000000004cb                __RESLO_H = 0x4cb
                0x00000000000004ca                __RESLO = 0x4ca
                0x00000000000004cc                __RESHI_L = 0x4cc
                0x00000000000004cd                __RESHI_H = 0x4cd
                0x00000000000004cc                __RESHI = 0x4cc
                0x00000000000004ce                __SUMEXT_L = 0x4ce
                0x00000000000004cf                __SUMEXT_H = 0x4cf
                0x00000000000004ce                __SUMEXT = 0x4ce
                0x00000000000004d0                __MPY32L_L = 0x4d0
                0x00000000000004d1                __MPY32L_H = 0x4d1
                0x00000000000004d0                __MPY32L = 0x4d0
                0x00000000000004d2                __MPY32H_L = 0x4d2
                0x00000000000004d3                __MPY32H_H = 0x4d3
                0x00000000000004d2                __MPY32H = 0x4d2
                0x00000000000004d4                __MPYS32L_L = 0x4d4
                0x00000000000004d5                __MPYS32L_H = 0x4d5
                0x00000000000004d4                __MPYS32L = 0x4d4
                0x00000000000004d6                __MPYS32H_L = 0x4d6
                0x00000000000004d7                __MPYS32H_H = 0x4d7
                0x00000000000004d6                __MPYS32H = 0x4d6
                0x00000000000004d8                __MAC32L_L = 0x4d8
                0x00000000000004d9                __MAC32L_H = 0x4d9
                0x00000000000004d8                __MAC32L = 0x4d8
                0x00000000000004da                __MAC32H_L = 0x4da
                0x00000000000004db                __MAC32H_H = 0x4db
                0x00000000000004da                __MAC32H = 0x4da
                0x00000000000004dc                __MACS32L_L = 0x4dc
                0x00000000000004dd                __MACS32L_H = 0x4dd
                0x00000000000004dc                __MACS32L = 0x4dc
                0x00000000000004de                __MACS32H_L = 0x4de
                0x00000000000004df                __MACS32H_H = 0x4df
                0x00000000000004de                __MACS32H = 0x4de
                0x00000000000004e0                __OP2L_L = 0x4e0
                0x00000000000004e1                __OP2L_H = 0x4e1
                0x00000000000004e0                __OP2L = 0x4e0
                0x00000000000004e2                __OP2H_L = 0x4e2
                0x00000000000004e3                __OP2H_H = 0x4e3
                0x00000000000004e2                __OP2H = 0x4e2
                0x00000000000004e4                __RES0_L = 0x4e4
                0x00000000000004e5                __RES0_H = 0x4e5
                0x00000000000004e4                __RES0 = 0x4e4
                0x00000000000004e6                __RES1_L = 0x4e6
                0x00000000000004e7                __RES1_H = 0x4e7
                0x00000000000004e6                __RES1 = 0x4e6
                0x00000000000004e8                __RES2_L = 0x4e8
                0x00000000000004e9                __RES2_H = 0x4e9
                0x00000000000004e8                __RES2 = 0x4e8
                0x00000000000004ea                __RES3_L = 0x4ea
                0x00000000000004eb                __RES3_H = 0x4eb
                0x00000000000004ea                __RES3 = 0x4ea
                0x00000000000004ec                __MPY32CTL0_L = 0x4ec
                0x00000000000004ed                __MPY32CTL0_H = 0x4ed
                0x00000000000004ec                __MPY32CTL0 = 0x4ec
                0x0000000000000200                __PAIN_L = 0x200
                0x0000000000000201                __PAIN_H = 0x201
                0x0000000000000200                __PAIN = 0x200
                0x0000000000000202                __PAOUT_L = 0x202
                0x0000000000000203                __PAOUT_H = 0x203
                0x0000000000000202                __PAOUT = 0x202
                0x0000000000000204                __PADIR_L = 0x204
                0x0000000000000205                __PADIR_H = 0x205
                0x0000000000000204                __PADIR = 0x204
                0x0000000000000206                __PAREN_L = 0x206
                0x0000000000000207                __PAREN_H = 0x207
                0x0000000000000206                __PAREN = 0x206
                0x0000000000000208                __PADS_L = 0x208
                0x0000000000000209                __PADS_H = 0x209
                0x0000000000000208                __PADS = 0x208
                0x000000000000020a                __PASEL_L = 0x20a
                0x000000000000020b                __PASEL_H = 0x20b
                0x000000000000020a                __PASEL = 0x20a
                0x0000000000000218                __PAIES_L = 0x218
                0x0000000000000219                __PAIES_H = 0x219
                0x0000000000000218                __PAIES = 0x218
                0x000000000000021a                __PAIE_L = 0x21a
                0x000000000000021b                __PAIE_H = 0x21b
                0x000000000000021a                __PAIE = 0x21a
                0x000000000000021c                __PAIFG_L = 0x21c
                0x000000000000021d                __PAIFG_H = 0x21d
                0x000000000000021c                __PAIFG = 0x21c
                0x000000000000020e                __P1IV = 0x20e
                0x000000000000021e                __P2IV = 0x21e
                0x0000000000000220                __PBIN_L = 0x220
                0x0000000000000221                __PBIN_H = 0x221
                0x0000000000000220                __PBIN = 0x220
                0x0000000000000222                __PBOUT_L = 0x222
                0x0000000000000223                __PBOUT_H = 0x223
                0x0000000000000222                __PBOUT = 0x222
                0x0000000000000224                __PBDIR_L = 0x224
                0x0000000000000225                __PBDIR_H = 0x225
                0x0000000000000224                __PBDIR = 0x224
                0x0000000000000226                __PBREN_L = 0x226
                0x0000000000000227                __PBREN_H = 0x227
                0x0000000000000226                __PBREN = 0x226
                0x0000000000000228                __PBDS_L = 0x228
                0x0000000000000229                __PBDS_H = 0x229
                0x0000000000000228                __PBDS = 0x228
                0x000000000000022a                __PBSEL_L = 0x22a
                0x000000000000022b                __PBSEL_H = 0x22b
                0x000000000000022a                __PBSEL = 0x22a
                0x0000000000000240                __PCIN_L = 0x240
                0x0000000000000241                __PCIN_H = 0x241
                0x0000000000000240                __PCIN = 0x240
                0x0000000000000242                __PCOUT_L = 0x242
                0x0000000000000243                __PCOUT_H = 0x243
                0x0000000000000242                __PCOUT = 0x242
                0x0000000000000244                __PCDIR_L = 0x244
                0x0000000000000245                __PCDIR_H = 0x245
                0x0000000000000244                __PCDIR = 0x244
                0x0000000000000246                __PCREN_L = 0x246
                0x0000000000000247                __PCREN_H = 0x247
                0x0000000000000246                __PCREN = 0x246
                0x0000000000000248                __PCDS_L = 0x248
                0x0000000000000249                __PCDS_H = 0x249
                0x0000000000000248                __PCDS = 0x248
                0x000000000000024a                __PCSEL_L = 0x24a
                0x000000000000024b                __PCSEL_H = 0x24b
                0x000000000000024a                __PCSEL = 0x24a
                0x0000000000000260                __PDIN_L = 0x260
                0x0000000000000261                __PDIN_H = 0x261
                0x0000000000000260                __PDIN = 0x260
                0x0000000000000262                __PDOUT_L = 0x262
                0x0000000000000263                __PDOUT_H = 0x263
                0x0000000000000262                __PDOUT = 0x262
                0x0000000000000264                __PDDIR_L = 0x264
                0x0000000000000265                __PDDIR_H = 0x265
                0x0000000000000264                __PDDIR = 0x264
                0x0000000000000266                __PDREN_L = 0x266
                0x0000000000000267                __PDREN_H = 0x267
                0x0000000000000266                __PDREN = 0x266
                0x0000000000000268                __PDDS_L = 0x268
                0x0000000000000269                __PDDS_H = 0x269
                0x0000000000000268                __PDDS = 0x268
                0x000000000000026a                __PDSEL_L = 0x26a
                0x000000000000026b                __PDSEL_H = 0x26b
                0x000000000000026a                __PDSEL = 0x26a
                0x0000000000000280                __PEIN_L = 0x280
                0x0000000000000281                __PEIN_H = 0x281
                0x0000000000000280                __PEIN = 0x280
                0x0000000000000282                __PEOUT_L = 0x282
                0x0000000000000283                __PEOUT_H = 0x283
                0x0000000000000282                __PEOUT = 0x282
                0x0000000000000284                __PEDIR_L = 0x284
                0x0000000000000285                __PEDIR_H = 0x285
                0x0000000000000284                __PEDIR = 0x284
                0x0000000000000286                __PEREN_L = 0x286
                0x0000000000000287                __PEREN_H = 0x287
                0x0000000000000286                __PEREN = 0x286
                0x0000000000000288                __PEDS_L = 0x288
                0x0000000000000289                __PEDS_H = 0x289
                0x0000000000000288                __PEDS = 0x288
                0x000000000000028a                __PESEL_L = 0x28a
                0x000000000000028b                __PESEL_H = 0x28b
                0x000000000000028a                __PESEL = 0x28a
                0x00000000000002a0                __PFIN_L = 0x2a0
                0x00000000000002a1                __PFIN_H = 0x2a1
                0x00000000000002a0                __PFIN = 0x2a0
                0x00000000000002a2                __PFOUT_L = 0x2a2
                0x00000000000002a3                __PFOUT_H = 0x2a3
                0x00000000000002a2                __PFOUT = 0x2a2
                0x00000000000002a4                __PFDIR_L = 0x2a4
                0x00000000000002a5                __PFDIR_H = 0x2a5
                0x00000000000002a4                __PFDIR = 0x2a4
                0x00000000000002a6                __PFREN_L = 0x2a6
                0x00000000000002a7                __PFREN_H = 0x2a7
                0x00000000000002a6                __PFREN = 0x2a6
                0x00000000000002a8                __PFDS_L = 0x2a8
                0x00000000000002a9                __PFDS_H = 0x2a9
                0x00000000000002a8                __PFDS = 0x2a8
                0x00000000000002aa                __PFSEL_L = 0x2aa
                0x00000000000002ab                __PFSEL_H = 0x2ab
                0x00000000000002aa                __PFSEL = 0x2aa
                0x0000000000000320                __PJIN_L = 0x320
                0x0000000000000321                __PJIN_H = 0x321
                0x0000000000000320                __PJIN = 0x320
                0x0000000000000322                __PJOUT_L = 0x322
                0x0000000000000323                __PJOUT_H = 0x323
                0x0000000000000322                __PJOUT = 0x322
                0x0000000000000324                __PJDIR_L = 0x324
                0x0000000000000325                __PJDIR_H = 0x325
                0x0000000000000324                __PJDIR = 0x324
                0x0000000000000326                __PJREN_L = 0x326
                0x0000000000000327                __PJREN_H = 0x327
                0x0000000000000326                __PJREN = 0x326
                0x0000000000000328                __PJDS_L = 0x328
                0x0000000000000329                __PJDS_H = 0x329
                0x0000000000000328                __PJDS = 0x328
                0x0000000000000120                __PMMCTL0_L = 0x120
                0x0000000000000121                __PMMCTL0_H = 0x121
                0x0000000000000120                __PMMCTL0 = 0x120
                0x0000000000000122                __PMMCTL1_L = 0x122
                0x0000000000000123                __PMMCTL1_H = 0x123
                0x0000000000000122                __PMMCTL1 = 0x122
                0x0000000000000124                __SVSMHCTL_L = 0x124
                0x0000000000000125                __SVSMHCTL_H = 0x125
                0x0000000000000124                __SVSMHCTL = 0x124
                0x0000000000000126                __SVSMLCTL_L = 0x126
                0x0000000000000127                __SVSMLCTL_H = 0x127
                0x0000000000000126                __SVSMLCTL = 0x126
                0x0000000000000128                __SVSMIO_L = 0x128
                0x0000000000000129                __SVSMIO_H = 0x129
                0x0000000000000128                __SVSMIO = 0x128
                0x000000000000012c                __PMMIFG_L = 0x12c
                0x000000000000012d                __PMMIFG_H = 0x12d
                0x000000000000012c                __PMMIFG = 0x12c
                0x000000000000012e                __PMMRIE_L = 0x12e
                0x000000000000012f                __PMMRIE_H = 0x12f
                0x000000000000012e                __PMMRIE = 0x12e
                0x0000000000000158                __RCCTL0_L = 0x158
                0x0000000000000159                __RCCTL0_H = 0x159
                0x0000000000000158                __RCCTL0 = 0x158
                0x00000000000004a0                __RTCCTL01_L = 0x4a0
                0x00000000000004a1                __RTCCTL01_H = 0x4a1
                0x00000000000004a0                __RTCCTL01 = 0x4a0
                0x00000000000004a2                __RTCCTL23_L = 0x4a2
                0x00000000000004a3                __RTCCTL23_H = 0x4a3
                0x00000000000004a2                __RTCCTL23 = 0x4a2
                0x00000000000004a8                __RTCPS0CTL_L = 0x4a8
                0x00000000000004a9                __RTCPS0CTL_H = 0x4a9
                0x00000000000004a8                __RTCPS0CTL = 0x4a8
                0x00000000000004aa                __RTCPS1CTL_L = 0x4aa
                0x00000000000004ab                __RTCPS1CTL_H = 0x4ab
                0x00000000000004aa                __RTCPS1CTL = 0x4aa
                0x00000000000004ac                __RTCPS_L = 0x4ac
                0x00000000000004ad                __RTCPS_H = 0x4ad
                0x00000000000004ac                __RTCPS = 0x4ac
                0x00000000000004ae                __RTCIV = 0x4ae
                0x00000000000004b0                __RTCTIM0_L = 0x4b0
                0x00000000000004b1                __RTCTIM0_H = 0x4b1
                0x00000000000004b0                __RTCTIM0 = 0x4b0
                0x00000000000004b2                __RTCTIM1_L = 0x4b2
                0x00000000000004b3                __RTCTIM1_H = 0x4b3
                0x00000000000004b2                __RTCTIM1 = 0x4b2
                0x00000000000004b4                __RTCDATE_L = 0x4b4
                0x00000000000004b5                __RTCDATE_H = 0x4b5
                0x00000000000004b4                __RTCDATE = 0x4b4
                0x00000000000004b6                __RTCYEAR_L = 0x4b6
                0x00000000000004b7                __RTCYEAR_H = 0x4b7
                0x00000000000004b6                __RTCYEAR = 0x4b6
                0x00000000000004b8                __RTCAMINHR_L = 0x4b8
                0x00000000000004b9                __RTCAMINHR_H = 0x4b9
                0x00000000000004b8                __RTCAMINHR = 0x4b8
                0x00000000000004ba                __RTCADOWDAY_L = 0x4ba
                0x00000000000004bb                __RTCADOWDAY_H = 0x4bb
                0x00000000000004ba                __RTCADOWDAY = 0x4ba
                0x0000000000000100                __SFRIE1_L = 0x100
                0x0000000000000101                __SFRIE1_H = 0x101
                0x0000000000000100                __SFRIE1 = 0x100
                0x0000000000000102                __SFRIFG1_L = 0x102
                0x0000000000000103                __SFRIFG1_H = 0x103
                0x0000000000000102                __SFRIFG1 = 0x102
                0x0000000000000104                __SFRRPCR_L = 0x104
                0x0000000000000105                __SFRRPCR_H = 0x105
                0x0000000000000104                __SFRRPCR = 0x104
                0x0000000000000180                __SYSCTL_L = 0x180
                0x0000000000000181                __SYSCTL_H = 0x181
                0x0000000000000180                __SYSCTL = 0x180
                0x0000000000000182                __SYSBSLC_L = 0x182
                0x0000000000000183                __SYSBSLC_H = 0x183
                0x0000000000000182                __SYSBSLC = 0x182
                0x0000000000000186                __SYSJMBC_L = 0x186
                0x0000000000000187                __SYSJMBC_H = 0x187
                0x0000000000000186                __SYSJMBC = 0x186
                0x0000000000000188                __SYSJMBI0_L = 0x188
                0x0000000000000189                __SYSJMBI0_H = 0x189
                0x0000000000000188                __SYSJMBI0 = 0x188
                0x000000000000018a                __SYSJMBI1_L = 0x18a
                0x000000000000018b                __SYSJMBI1_H = 0x18b
                0x000000000000018a                __SYSJMBI1 = 0x18a
                0x000000000000018c                __SYSJMBO0_L = 0x18c
                0x000000000000018d                __SYSJMBO0_H = 0x18d
                0x000000000000018c                __SYSJMBO0 = 0x18c
                0x000000000000018e                __SYSJMBO1_L = 0x18e
                0x000000000000018f                __SYSJMBO1_H = 0x18f
                0x000000000000018e                __SYSJMBO1 = 0x18e
                0x000000000000019a                __SYSUNIV_L = 0x19a
                0x000000000000019b                __SYSUNIV_H = 0x19b
                0x000000000000019a                __SYSUNIV = 0x19a
                0x000000000000019c                __SYSSNIV_L = 0x19c
                0x000000000000019d                __SYSSNIV_H = 0x19d
                0x000000000000019c                __SYSSNIV = 0x19c
                0x000000000000019e                __SYSRSTIV_L = 0x19e
                0x000000000000019f                __SYSRSTIV_H = 0x19f
                0x000000000000019e                __SYSRSTIV = 0x19e
                0x0000000000000340                __TA0CTL = 0x340
                0x0000000000000342                __TA0CCTL0 = 0x342
                0x0000000000000344                __TA0CCTL1 = 0x344
                0x0000000000000346                __TA0CCTL2 = 0x346
                0x0000000000000348                __TA0CCTL3 = 0x348
                0x000000000000034a                __TA0CCTL4 = 0x34a
                0x0000000000000350                __TA0R = 0x350
                0x0000000000000352                __TA0CCR0 = 0x352
                0x0000000000000354                __TA0CCR1 = 0x354
                0x0000000000000356                __TA0CCR2 = 0x356
                0x0000000000000358                __TA0CCR3 = 0x358
                0x000000000000035a                __TA0CCR4 = 0x35a
                0x000000000000036e                __TA0IV = 0x36e
                0x0000000000000360                __TA0EX0 = 0x360
                0x0000000000000380                __TA1CTL = 0x380
                0x0000000000000382                __TA1CCTL0 = 0x382
                0x0000000000000384                __TA1CCTL1 = 0x384
                0x0000000000000386                __TA1CCTL2 = 0x386
                0x0000000000000390                __TA1R = 0x390
                0x0000000000000392                __TA1CCR0 = 0x392
                0x0000000000000394                __TA1CCR1 = 0x394
                0x0000000000000396                __TA1CCR2 = 0x396
                0x00000000000003ae                __TA1IV = 0x3ae
                0x00000000000003a0                __TA1EX0 = 0x3a0
                0x00000000000003c0                __TB0CTL = 0x3c0
                0x00000000000003c2                __TB0CCTL0 = 0x3c2
                0x00000000000003c4                __TB0CCTL1 = 0x3c4
                0x00000000000003c6                __TB0CCTL2 = 0x3c6
                0x00000000000003c8                __TB0CCTL3 = 0x3c8
                0x00000000000003ca                __TB0CCTL4 = 0x3ca
                0x00000000000003cc                __TB0CCTL5 = 0x3cc
                0x00000000000003ce                __TB0CCTL6 = 0x3ce
                0x00000000000003d0                __TB0R = 0x3d0
                0x00000000000003d2                __TB0CCR0 = 0x3d2
                0x00000000000003d4                __TB0CCR1 = 0x3d4
                0x00000000000003d6                __TB0CCR2 = 0x3d6
                0x00000000000003d8                __TB0CCR3 = 0x3d8
                0x00000000000003da                __TB0CCR4 = 0x3da
                0x00000000000003dc                __TB0CCR5 = 0x3dc
                0x00000000000003de                __TB0CCR6 = 0x3de
                0x00000000000003e0                __TB0EX0 = 0x3e0
                0x00000000000003ee                __TB0IV = 0x3ee
                0x0000000000000160                __UCSCTL0_L = 0x160
                0x0000000000000161                __UCSCTL0_H = 0x161
                0x0000000000000160                __UCSCTL0 = 0x160
                0x0000000000000162                __UCSCTL1_L = 0x162
                0x0000000000000163                __UCSCTL1_H = 0x163
                0x0000000000000162                __UCSCTL1 = 0x162
                0x0000000000000164                __UCSCTL2_L = 0x164
                0x0000000000000165                __UCSCTL2_H = 0x165
                0x0000000000000164                __UCSCTL2 = 0x164
                0x0000000000000166                __UCSCTL3_L = 0x166
                0x0000000000000167                __UCSCTL3_H = 0x167
                0x0000000000000166                __UCSCTL3 = 0x166
                0x0000000000000168                __UCSCTL4_L = 0x168
                0x0000000000000169                __UCSCTL4_H = 0x169
                0x0000000000000168                __UCSCTL4 = 0x168
                0x000000000000016a                __UCSCTL5_L = 0x16a
                0x000000000000016b                __UCSCTL5_H = 0x16b
                0x000000000000016a                __UCSCTL5 = 0x16a
                0x000000000000016c                __UCSCTL6_L = 0x16c
                0x000000000000016d                __UCSCTL6_H = 0x16d
                0x000000000000016c                __UCSCTL6 = 0x16c
                0x000000000000016e                __UCSCTL7_L = 0x16e
                0x000000000000016f                __UCSCTL7_H = 0x16f
                0x000000000000016e                __UCSCTL7 = 0x16e
                0x0000000000000170                __UCSCTL8_L = 0x170
                0x0000000000000171                __UCSCTL8_H = 0x171
                0x0000000000000170                __UCSCTL8 = 0x170
                0x00000000000005c0                __UCA0CTLW0_L = 0x5c0
                0x00000000000005c1                __UCA0CTLW0_H = 0x5c1
                0x00000000000005c0                __UCA0CTLW0 = 0x5c0
                0x00000000000005c6                __UCA0BRW_L = 0x5c6
                0x00000000000005c7                __UCA0BRW_H = 0x5c7
                0x00000000000005c6                __UCA0BRW = 0x5c6
                0x00000000000005c8                __UCA0MCTL = 0x5c8
                0x00000000000005ca                __UCA0STAT = 0x5ca
                0x00000000000005cc                __UCA0RXBUF = 0x5cc
                0x00000000000005ce                __UCA0TXBUF = 0x5ce
                0x00000000000005d0                __UCA0ABCTL = 0x5d0
                0x00000000000005d2                __UCA0IRCTL_L = 0x5d2
                0x00000000000005d3                __UCA0IRCTL_H = 0x5d3
                0x00000000000005d2                __UCA0IRCTL = 0x5d2
                0x00000000000005dc                __UCA0ICTL_L = 0x5dc
                0x00000000000005dd                __UCA0ICTL_H = 0x5dd
                0x00000000000005dc                __UCA0ICTL = 0x5dc
                0x00000000000005de                __UCA0IV = 0x5de
                0x00000000000005e0                __UCB0CTLW0_L = 0x5e0
                0x00000000000005e1                __UCB0CTLW0_H = 0x5e1
                0x00000000000005e0                __UCB0CTLW0 = 0x5e0
                0x00000000000005e6                __UCB0BRW_L = 0x5e6
                0x00000000000005e7                __UCB0BRW_H = 0x5e7
                0x00000000000005e6                __UCB0BRW = 0x5e6
                0x00000000000005ea                __UCB0STAT = 0x5ea
                0x00000000000005ec                __UCB0RXBUF = 0x5ec
                0x00000000000005ee                __UCB0TXBUF = 0x5ee
                0x00000000000005f0                __UCB0I2COA_L = 0x5f0
                0x00000000000005f1                __UCB0I2COA_H = 0x5f1
                0x00000000000005f0                __UCB0I2COA = 0x5f0
                0x00000000000005f2                __UCB0I2CSA_L = 0x5f2
                0x00000000000005f3                __UCB0I2CSA_H = 0x5f3
                0x00000000000005f2                __UCB0I2CSA = 0x5f2
                0x00000000000005fc                __UCB0ICTL_L = 0x5fc
                0x00000000000005fd                __UCB0ICTL_H = 0x5fd
                0x00000000000005fc                __UCB0ICTL = 0x5fc
                0x00000000000005fe                __UCB0IV = 0x5fe
                0x0000000000000600                __UCA1CTLW0_L = 0x600
                0x0000000000000601                __UCA1CTLW0_H = 0x601
                0x0000000000000600                __UCA1CTLW0 = 0x600
                0x0000000000000606                __UCA1BRW_L = 0x606
                0x0000000000000607                __UCA1BRW_H = 0x607
                0x0000000000000606                __UCA1BRW = 0x606
                0x0000000000000608                __UCA1MCTL = 0x608
                0x000000000000060a                __UCA1STAT = 0x60a
                0x000000000000060c                __UCA1RXBUF = 0x60c
                0x000000000000060e                __UCA1TXBUF = 0x60e
                0x0000000000000610                __UCA1ABCTL = 0x610
                0x0000000000000612                __UCA1IRCTL_L = 0x612
                0x0000000000000613                __UCA1IRCTL_H = 0x613
                0x0000000000000612                __UCA1IRCTL = 0x612
                0x000000000000061c                __UCA1ICTL_L = 0x61c
                0x000000000000061d                __UCA1ICTL_H = 0x61d
                0x000000000000061c                __UCA1ICTL = 0x61c
                0x000000000000061e                __UCA1IV = 0x61e
                0x0000000000000620                __UCB1CTLW0_L = 0x620
                0x0000000000000621                __UCB1CTLW0_H = 0x621
                0x0000000000000620                __UCB1CTLW0 = 0x620
                0x0000000000000626                __UCB1BRW_L = 0x626
                0x0000000000000627                __UCB1BRW_H = 0x627
                0x0000000000000626                __UCB1BRW = 0x626
                0x000000000000062a                __UCB1STAT = 0x62a
                0x000000000000062c                __UCB1RXBUF = 0x62c
                0x000000000000062e                __UCB1TXBUF = 0x62e
                0x0000000000000630                __UCB1I2COA_L = 0x630
                0x0000000000000631                __UCB1I2COA_H = 0x631
                0x0000000000000630                __UCB1I2COA = 0x630
                0x0000000000000632                __UCB1I2CSA_L = 0x632
                0x0000000000000633                __UCB1I2CSA_H = 0x633
                0x0000000000000632                __UCB1I2CSA = 0x632
                0x000000000000063c                __UCB1ICTL_L = 0x63c
                0x000000000000063d                __UCB1ICTL_H = 0x63d
                0x000000000000063c                __UCB1ICTL = 0x63c
                0x000000000000063e                __UCB1IV = 0x63e
                0x000000000000015c                __WDTCTL_L = 0x15c
                0x000000000000015d                __WDTCTL_H = 0x15d
                0x000000000000015c                __WDTCTL = 0x15c

.hash
 *(.hash)

.dynsym
 *(.dynsym)

.dynstr
 *(.dynstr)

.gnu.version
 *(.gnu.version)

.gnu.version_d
 *(.gnu.version_d)

.gnu.version_r
 *(.gnu.version_r)

.rel.init
 *(.rel.init)

.rela.init
 *(.rela.init)

.rel.fini
 *(.rel.fini)

.rela.fini
 *(.rela.fini)

.rel.text
 *(.rel.text .rel.text.* .rel.gnu.linkonce.t.*)

.rela.text
 *(.rela.text .rela.text.* .rela.gnu.linkonce.t.*)

.rel.rodata
 *(.rel.rodata .rel.rodata.* .rel.gnu.linkonce.r.*)

.rela.rodata
 *(.rela.rodata .rela.rodata.* .rela.gnu.linkonce.r.*)

.rel.data
 *(.rel.data .rel.data.* .rel.gnu.linkonce.d.*)

.rela.data
 *(.rela.data .rela.data.* .rela.gnu.linkonce.d.*)

.rel.bss
 *(.rel.bss .rel.bss.* .rel.gnu.linkonce.b.*)

.rela.bss
 *(.rela.bss .rela.bss.* .rela.gnu.linkonce.b.*)

.rel.ctors
 *(.rel.ctors)

.rela.ctors
 *(.rela.ctors)

.rel.dtors
 *(.rel.dtors)

.rela.dtors
 *(.rela.dtors)

.rel.got
 *(.rel.got)

.rela.got
 *(.rela.got)

.rel.plt
 *(.rel.plt)

.rela.plt
 *(.rela.plt)

.text           0x0000000000005c00     0x2358
                0x0000000000005c00                . = ALIGN (0x2)
 *(.init .init.*)
 *(.init0)
 .init0         0x0000000000005c00        0x0 /opt/compilers/mspgcc-4.7.3/bin/../lib/gcc/msp430/4.7.3/mcpu-430x/mmpy-16/msr20/mc20/libcrt0.a(_reset_vector__.o)
                0x0000000000005c00                _reset_vector__
 *(.init1)
 .init1         0x0000000000005c00        0xc /opt/compilers/mspgcc-4.7.3/bin/../lib/gcc/msp430/4.7.3/mcpu-430x/mmpy-16/msr20/mc20/libcrt0.a(__watchdog_support.o)
                0x0000000000005c00                __watchdog_support
 *(.init2)
 .init2         0x0000000000005c0c        0x4 /opt/compilers/mspgcc-4.7.3/bin/../lib/gcc/msp430/4.7.3/mcpu-430x/mmpy-16/msr20/mc20/libcrt0.a(__init_stack.o)
                0x0000000000005c0c                __init_stack
 *(.init3)
 .init3         0x0000000000005c10        0x0 /opt/compilers/mspgcc-4.7.3/bin/../lib/gcc/msp430/4.7.3/mcpu-430x/mmpy-16/msr20/mc20/libcrt0.a(__low_level_init.o)
                0x0000000000005c10                __low_level_init
 *(.init4)
 .init4         0x0000000000005c10       0x18 /opt/compilers/mspgcc-4.7.3/bin/../lib/gcc/msp430/4.7.3/mcpu-430x/mmpy-16/msr20/mc20/libcrt0.a(_copy_data.o)
                0x0000000000005c10                __do_copy_data
 .init4         0x0000000000005c28       0x16 /opt/compilers/mspgcc-4.7.3/bin/../lib/gcc/msp430/4.7.3/mcpu-430x/mmpy-16/msr20/mc20/libcrt0.a(_clear_bss.o)
                0x0000000000005c28                __do_clear_bss
 *(.init5)
 *(.init6)
 *(.init7)
 *(.init8)
 *(.init9)
 .init9         0x0000000000005c3e      0x31e obj_wismote/contiki-wismote-main.o
                0x0000000000005c3e                main
 *(.fini9)
 .fini9         0x0000000000005f5c        0x0 /opt/compilers/mspgcc-4.7.3/bin/../lib/gcc/msp430/4.7.3/mcpu-430x/mmpy-16/msr20/mc20/libcrt0.a(__stop_progExec__.o)
                0x0000000000005f5c                __stop_progExec__
 *(.fini8)
 *(.fini7)
 *(.fini6)
 *(.fini5)
 *(.fini4)
 *(.fini3)
 *(.fini2)
 *(.fini1)
 *(.fini0)
 .fini0         0x0000000000005f5c        0x6 /opt/compilers/mspgcc-4.7.3/bin/../lib/gcc/msp430/4.7.3/mcpu-430x/mmpy-16/msr20/mc20/libcrt0.a(_endless_loop__.o)
                0x0000000000005f5c                _endless_loop__
 *(.fini .fini.*)
                0x0000000000005f62                . = ALIGN (0x2)
                0x0000000000005f62                __ctors_start = .
 *(.ctors)
                0x0000000000005f62                __ctors_end = .
                0x0000000000005f62                __dtors_start = .
 *(.dtors)
                0x0000000000005f62                __dtors_end = .
                0x0000000000005f62                . = ALIGN (0x2)
 *(.text .text.* .gnu.linkonce.t.*)
 .text          0x0000000000005f62        0x4 /opt/compilers/mspgcc-4.7.3/bin/../lib/gcc/msp430/4.7.3/mcpu-430x/mmpy-16/msr20/mc20/crt0ivtbl64.o
                0x0000000000005f62                __isr_37
                0x0000000000005f62                __isr_51
                0x0000000000005f62                __isr_57
                0x0000000000005f62                __isr_33
                0x0000000000005f62                __isr_32
                0x0000000000005f62                __isr_54
                0x0000000000005f62                __isr_59
                0x0000000000005f62                __isr_39
                0x0000000000005f62                __isr_53
                0x0000000000005f62                __isr_41
                0x0000000000005f62                __isr_60
                0x0000000000005f62                __isr_36
                0x0000000000005f62                __isr_34
                0x0000000000005f62                __isr_44
                0x0000000000005f62                __isr_61
                0x0000000000005f62                __isr_55
                0x0000000000005f62                __isr_43
                0x0000000000005f62                __isr_50
                0x0000000000005f62                __isr_56
                0x0000000000005f62                __isr_38
                0x0000000000005f62                __isr_35
                0x0000000000005f62                __isr_45
                0x0000000000005f62                __isr_62
                0x0000000000005f62                __isr_52
                0x0000000000005f62                __isr_40
 .text.libgcc   0x0000000000005f66       0x22 /opt/compilers/mspgcc-4.7.3/bin/../lib/gcc/msp430/4.7.3/mcpu-430x/mmpy-16/msr20/mc20/libgcc.a(_udivmod16.o)
                0x0000000000005f66                __udivhi3
                0x0000000000005f66                __ext_udivmod16
                0x0000000000005f80                __umodhi3
 .text.libgcc   0x0000000000005f88       0x3a /opt/compilers/mspgcc-4.7.3/bin/../lib/gcc/msp430/4.7.3/mcpu-430x/mmpy-16/msr20/mc20/libgcc.a(_divmod16.o)
                0x0000000000005f88                __ext_divmod16
                0x0000000000005f88                __divhi3
                0x0000000000005fba                __modhi3
 .text.libgcc   0x0000000000005fc2       0x38 /opt/compilers/mspgcc-4.7.3/bin/../lib/gcc/msp430/4.7.3/mcpu-430x/mmpy-16/msr20/mc20/libgcc.a(_udivmod32.o)
                0x0000000000005fc2                __udivsi3
                0x0000000000005fc2                __ext_udivmod32
                0x0000000000005ff0                __umodsi3
 .text.libgcc   0x0000000000005ffa       0x4c /opt/compilers/mspgcc-4.7.3/bin/../lib/gcc/msp430/4.7.3/mcpu-430x/mmpy-16/msr20/mc20/libgcc.a(_divmod32.o)
                0x0000000000005ffa                __ext_divmod32
                0x0000000000005ffa                __divsi3
                0x000000000000603c                __modsi3
 .text.libgcc   0x0000000000006046       0x26 /opt/compilers/mspgcc-4.7.3/bin/../lib/gcc/msp430/4.7.3/mcpu-430x/mmpy-16/msr20/mc20/libgcc.a(_mulsi3.o)
                0x0000000000006046                __mulsi3
 .text.libgcc   0x000000000000606c       0xbc /opt/compilers/mspgcc-4.7.3/bin/../lib/gcc/msp430/4.7.3/mcpu-430x/mmpy-16/msr20/mc20/libgcc.a(_udivmod64.o)
                0x000000000000606c                __xabi_udivmod64
                0x00000000000060be                __udivdi3
                0x00000000000060d8                __umoddi3
                0x00000000000060fa                __udivmoddi4
 .text.crt0     0x0000000000006128        0x2 /opt/compilers/mspgcc-4.7.3/bin/../lib/gcc/msp430/4.7.3/mcpu-430x/mmpy-16/msr20/mc20/libcrt0.a(_unexpected_.o)
                0x0000000000006128                _unexpected_
 *(.near.text .near.text.*)
 .near.text.irq_p2
                0x000000000000612a       0x74 contiki-wismote.a(button-sensor.o)
                0x000000000000612a                irq_p2
                0x000000000000612a                __isr_42
 .near.text.cc2520_port1_interrupt
                0x000000000000619e       0x4e contiki-wismote.a(cc2520-arch.o)
                0x000000000000619e                __isr_47
                0x000000000000619e                cc2520_port1_interrupt
 .near.text.uart1_rx_interrupt
                0x00000000000061ec       0x6c contiki-wismote.a(uart1.o)
                0x00000000000061ec                __isr_46
                0x00000000000061ec                uart1_rx_interrupt
 .near.text.timera1
                0x0000000000006258       0xfa contiki-wismote.a(clock.o)
                0x0000000000006258                __isr_48
                0x0000000000006258                timera1
 .near.text.watchdog_interrupt
                0x0000000000006352        0x6 contiki-wismote.a(watchdog.o)
                0x0000000000006352                watchdog_interrupt
                0x0000000000006352                __isr_58
 .near.text.timera0
                0x0000000000006358       0x5c contiki-wismote.a(rtimer-arch.o)
                0x0000000000006358                __isr_49
                0x0000000000006358                timera0
 .any.text.__ieee754_expf
                0x00000000000063b4      0x312 /opt/compilers/mspgcc-4.7.3/bin/../lib/gcc/msp430/4.7.3/../../../../msp430/lib/mcpu-430x/mmpy-16/msr20/mc20/libm.a(ef_exp.o)
                0x00000000000063b4                __ieee754_expf
 .any.text.expf
                0x00000000000066c6        0x6 /opt/compilers/mspgcc-4.7.3/bin/../lib/gcc/msp430/4.7.3/../../../../msp430/lib/mcpu-430x/mmpy-16/msr20/mc20/libm.a(ef_exp.o)
                0x00000000000066c6                expf
 .any.text      0x00000000000066cc       0x3c /opt/compilers/mspgcc-4.7.3/bin/../lib/gcc/msp430/4.7.3/mcpu-430x/mmpy-16/msr20/mc20/libgcc.a(_fixunssfsi.o)
                0x00000000000066cc                __fixunssfsi
 .any.text      0x0000000000006708      0x306 /opt/compilers/mspgcc-4.7.3/bin/../lib/gcc/msp430/4.7.3/mcpu-430x/mmpy-16/msr20/mc20/libgcc.a(_addsub_sf.o)
                0x0000000000006972                __addsf3
                0x00000000000069be                __subsf3
 .any.text      0x0000000000006a0e      0x1fe /opt/compilers/mspgcc-4.7.3/bin/../lib/gcc/msp430/4.7.3/mcpu-430x/mmpy-16/msr20/mc20/libgcc.a(_mul_sf.o)
                0x0000000000006a0e                __mulsf3
 .any.text      0x0000000000006c0c      0x142 /opt/compilers/mspgcc-4.7.3/bin/../lib/gcc/msp430/4.7.3/mcpu-430x/mmpy-16/msr20/mc20/libgcc.a(_div_sf.o)
                0x0000000000006c0c                __divsf3
 .any.text      0x0000000000006d4e       0x4e /opt/compilers/mspgcc-4.7.3/bin/../lib/gcc/msp430/4.7.3/mcpu-430x/mmpy-16/msr20/mc20/libgcc.a(_gt_sf.o)
                0x0000000000006d4e                __gtsf2
 .any.text      0x0000000000006d9c       0x4e /opt/compilers/mspgcc-4.7.3/bin/../lib/gcc/msp430/4.7.3/mcpu-430x/mmpy-16/msr20/mc20/libgcc.a(_ge_sf.o)
                0x0000000000006d9c                __gesf2
 .any.text      0x0000000000006dea       0xa4 /opt/compilers/mspgcc-4.7.3/bin/../lib/gcc/msp430/4.7.3/mcpu-430x/mmpy-16/msr20/mc20/libgcc.a(_si_to_sf.o)
                0x0000000000006dea                __floatsisf
 .any.text      0x0000000000006e8e       0x8c /opt/compilers/mspgcc-4.7.3/bin/../lib/gcc/msp430/4.7.3/mcpu-430x/mmpy-16/msr20/mc20/libgcc.a(_sf_to_si.o)
                0x0000000000006e8e                __fixsfsi
 .any.text      0x0000000000006f1a       0xe4 /opt/compilers/mspgcc-4.7.3/bin/../lib/gcc/msp430/4.7.3/mcpu-430x/mmpy-16/msr20/mc20/libgcc.a(_usi_to_sf.o)
                0x0000000000006f1a                __floatunsisf
 .any.text      0x0000000000006ffe       0x6a /opt/compilers/mspgcc-4.7.3/bin/../lib/gcc/msp430/4.7.3/mcpu-430x/mmpy-16/msr20/mc20/libgcc.a(_clzsi2.o)
                0x0000000000006ffe                __clzsi2
 .any.text      0x0000000000007068      0x1c4 /opt/compilers/mspgcc-4.7.3/bin/../lib/gcc/msp430/4.7.3/mcpu-430x/mmpy-16/msr20/mc20/libgcc.a(_pack_sf.o)
                0x0000000000007068                __pack_f
 .any.text      0x000000000000722c      0x10c /opt/compilers/mspgcc-4.7.3/bin/../lib/gcc/msp430/4.7.3/mcpu-430x/mmpy-16/msr20/mc20/libgcc.a(_unpack_sf.o)
                0x000000000000722c                __unpack_f
 .any.text      0x0000000000007338       0xa4 /opt/compilers/mspgcc-4.7.3/bin/../lib/gcc/msp430/4.7.3/mcpu-430x/mmpy-16/msr20/mc20/libgcc.a(_fpcmp_parts_sf.o)
                0x0000000000007338                __fpcmp_parts_f
 .any.text.printf
                0x00000000000073dc       0x10 /opt/compilers/mspgcc-4.7.3/bin/../lib/gcc/msp430/4.7.3/../../../../msp430/lib/mcpu-430x/mmpy-16/msr20/mc20/libc.a(printf.o)
                0x00000000000073dc                printf
 .any.text.print_field
                0x00000000000073ec      0x176 /opt/compilers/mspgcc-4.7.3/bin/../lib/gcc/msp430/4.7.3/../../../../msp430/lib/mcpu-430x/mmpy-16/msr20/mc20/libc.a(vuprintf.o)
 .any.text.vuprintf
                0x0000000000007562      0x742 /opt/compilers/mspgcc-4.7.3/bin/../lib/gcc/msp430/4.7.3/../../../../msp430/lib/mcpu-430x/mmpy-16/msr20/mc20/libc.a(vuprintf.o)
                0x0000000000007562                vuprintf
 .any.text.puts
                0x0000000000007ca4       0x2c /opt/compilers/mspgcc-4.7.3/bin/../lib/gcc/msp430/4.7.3/../../../../msp430/lib/mcpu-430x/mmpy-16/msr20/mc20/libc.a(puts.o)
                0x0000000000007ca4                puts
 .any.text.rand
                0x0000000000007cd0       0x26 /opt/compilers/mspgcc-4.7.3/bin/../lib/gcc/msp430/4.7.3/../../../../msp430/lib/mcpu-430x/mmpy-16/msr20/mc20/libc.a(rand.o)
                0x0000000000007cd0                rand
 .any.text.srand
                0x0000000000007cf6        0xa /opt/compilers/mspgcc-4.7.3/bin/../lib/gcc/msp430/4.7.3/../../../../msp430/lib/mcpu-430x/mmpy-16/msr20/mc20/libc.a(rand.o)
                0x0000000000007cf6                srand
 .any.text.memcmp
                0x0000000000007d00       0x2c /opt/compilers/mspgcc-4.7.3/bin/../lib/gcc/msp430/4.7.3/../../../../msp430/lib/mcpu-430x/mmpy-16/msr20/mc20/libc.a(memcmp.o)
                0x0000000000007d00                memcmp
 .any.text.memcpy
                0x0000000000007d2c       0xe8 /opt/compilers/mspgcc-4.7.3/bin/../lib/gcc/msp430/4.7.3/../../../../msp430/lib/mcpu-430x/mmpy-16/msr20/mc20/libc.a(memcpy.o)
                0x0000000000007d2c                memcpy
 .any.text.memmove
                0x0000000000007e14       0xe8 /opt/compilers/mspgcc-4.7.3/bin/../lib/gcc/msp430/4.7.3/../../../../msp430/lib/mcpu-430x/mmpy-16/msr20/mc20/libc.a(memmove.o)
                0x0000000000007e14                memmove
 .any.text.memset
                0x0000000000007efc       0x5c /opt/compilers/mspgcc-4.7.3/bin/../lib/gcc/msp430/4.7.3/../../../../msp430/lib/mcpu-430x/mmpy-16/msr20/mc20/libc.a(memset.o)
                0x0000000000007efc                memset

.rodata         0x0000000000007f58     0x1149
                0x0000000000007f58                . = ALIGN (0x2)
 *(.rodata .rodata.* .gnu.linkonce.r.*)
 .rodata.rpl_set_metric.constprop.0
                0x0000000000007f58       0x45 udp-server.co
 .rodata.process_thread_custom_process
                0x0000000000007f9d       0x92 udp-server.co
 *fill*         0x000000000000802f        0x1 00
 .rodata.autostart_processes
                0x0000000000008030        0x4 udp-server.co
                0x0000000000008030                autostart_processes
 .rodata        0x0000000000008034        0xf udp-server.co
 .rodata        0x0000000000008043      0x119 obj_wismote/contiki-wismote-main.o
 .rodata        0x000000000000815c        0x7 contiki-wismote.a(button-sensor.o)
 *fill*         0x0000000000008163        0x1 00
 .rodata.button_sensor
                0x0000000000008164        0xe contiki-wismote.a(button-sensor.o)
                0x0000000000008164                button_sensor
 .rodata        0x0000000000008172        0x8 contiki-wismote.a(sensors.o)
 .rodata.cc2520_driver
                0x000000000000817a       0x38 contiki-wismote.a(cc2520.o)
                0x000000000000817a                cc2520_driver
 .rodata        0x00000000000081b2        0xe contiki-wismote.a(cc2520.o)
 .rodata.battery_start
                0x00000000000081c0       0x62 contiki-wismote.a(battery_kinetic)
 .rodata.update_battery
                0x0000000000008222      0x20b contiki-wismote.a(battery_kinetic)
 .rodata        0x000000000000842d       0x18 contiki-wismote.a(battery_kinetic)
 .rodata        0x0000000000008445        0xf contiki-wismote.a(ctimer.o)
 .rodata        0x0000000000008454        0xc contiki-wismote.a(etimer.o)
 .rodata        0x0000000000008460        0xb contiki-wismote.a(sicslowpan.o)
 *fill*         0x000000000000846b        0x1 00
 .rodata.sicslowpan_driver
                0x000000000000846c        0xa contiki-wismote.a(sicslowpan.o)
                0x000000000000846c                sicslowpan_driver
 .rodata.llprefix
                0x0000000000008476        0x2 contiki-wismote.a(sicslowpan.o)
                0x0000000000008476                llprefix
 .rodata.unc_mxconf
                0x0000000000008478        0x4 contiki-wismote.a(sicslowpan.o)
                0x0000000000008478                unc_mxconf
 .rodata.unc_ctxconf
                0x000000000000847c        0x4 contiki-wismote.a(sicslowpan.o)
                0x000000000000847c                unc_ctxconf
 .rodata.unc_llconf
                0x0000000000008480        0x4 contiki-wismote.a(sicslowpan.o)
                0x0000000000008480                unc_llconf
 .rodata.ttl_values
                0x0000000000008484        0x4 contiki-wismote.a(sicslowpan.o)
 .rodata.uip_process
                0x0000000000008488       0x40 contiki-wismote.a(uip6.o)
 .rodata.tcpip_ipv6_output
                0x00000000000084c8       0x23 contiki-wismote.a(tcpip.o)
 .rodata        0x00000000000084eb        0xd contiki-wismote.a(tcpip.o)
 .rodata.uip_debug_ipaddr_print
                0x00000000000084f8       0x28 contiki-wismote.a(uip-debug.o)
 .rodata.rpl_filter_dio
                0x0000000000008520       0x87 contiki-wismote.a(rpl-dag.o)
 .rodata.dio_input
                0x00000000000085a7      0x30c contiki-wismote.a(rpl-icmp6.o)
 .rodata.rpl_icmp6_update_nbr_table
                0x00000000000088b3       0x2a contiki-wismote.a(rpl-icmp6.o)
 .rodata.dao_input
                0x00000000000088dd      0x2d9 contiki-wismote.a(rpl-icmp6.o)
 .rodata.dis_output
                0x0000000000008bb6       0x17 contiki-wismote.a(rpl-icmp6.o)
 .rodata.dio_output
                0x0000000000008bcd      0x106 contiki-wismote.a(rpl-icmp6.o)
 .rodata.dis_input
                0x0000000000008cd3       0x99 contiki-wismote.a(rpl-icmp6.o)
 .rodata.dao_output_target
                0x0000000000008d6c      0x148 contiki-wismote.a(rpl-icmp6.o)
 .rodata.dao_output
                0x0000000000008eb4       0x3b contiki-wismote.a(rpl-icmp6.o)
 *fill*         0x0000000000008eef        0x1 00
 .rodata.linkaddr_null
                0x0000000000008ef0        0x8 contiki-wismote.a(linkaddr.o)
                0x0000000000008ef0                linkaddr_null
 .rodata.net_debug_lladdr_print
                0x0000000000008ef8       0x14 contiki-wismote.a(net-debug.o)
 .rodata        0x0000000000008f0c        0x5 contiki-wismote.a(csma.o)
 *fill*         0x0000000000008f11        0x1 00
 .rodata.csma_driver
                0x0000000000008f12       0x1a contiki-wismote.a(csma.o)
                0x0000000000008f12                csma_driver
 .rodata.framer_802154
                0x0000000000008f2c        0xc contiki-wismote.a(framer-802154.o)
                0x0000000000008f2c                framer_802154
 .rodata        0x0000000000008f38        0xb contiki-wismote.a(contikimac.o)
 *fill*         0x0000000000008f43        0x1 00
 .rodata.contikimac_driver
                0x0000000000008f44       0x1e contiki-wismote.a(contikimac.o)
                0x0000000000008f44                contikimac_driver
 .rodata        0x0000000000008f62        0x8 contiki-wismote.a(nullsec.o)
 .rodata.nullsec_driver
                0x0000000000008f6a        0xe contiki-wismote.a(nullsec.o)
                0x0000000000008f6a                nullsec_driver
 .rodata.CSWTCH.16
                0x0000000000008f78        0x2 contiki-wismote.a(frame802154.o)
 .rodata.ln2HI  0x0000000000008f7a        0x8 /opt/compilers/mspgcc-4.7.3/bin/../lib/gcc/msp430/4.7.3/../../../../msp430/lib/mcpu-430x/mmpy-16/msr20/mc20/libm.a(ef_exp.o)
 .rodata.ln2LO  0x0000000000008f82        0x8 /opt/compilers/mspgcc-4.7.3/bin/../lib/gcc/msp430/4.7.3/../../../../msp430/lib/mcpu-430x/mmpy-16/msr20/mc20/libm.a(ef_exp.o)
 .rodata.halF   0x0000000000008f8a        0x8 /opt/compilers/mspgcc-4.7.3/bin/../lib/gcc/msp430/4.7.3/../../../../msp430/lib/mcpu-430x/mmpy-16/msr20/mc20/libm.a(ef_exp.o)
 .rodata        0x0000000000008f92        0x8 /opt/compilers/mspgcc-4.7.3/bin/../lib/gcc/msp430/4.7.3/mcpu-430x/mmpy-16/msr20/mc20/libgcc.a(_thenan_sf.o)
                0x0000000000008f92                __thenan_sf
 .rodata        0x0000000000008f9a      0x100 /opt/compilers/mspgcc-4.7.3/bin/../lib/gcc/msp430/4.7.3/mcpu-430x/mmpy-16/msr20/mc20/libgcc.a(_clz.o)
                0x0000000000008f9a                __clz_tab
 .rodata.vuprintf
                0x000000000000909a        0x7 /opt/compilers/mspgcc-4.7.3/bin/../lib/gcc/msp430/4.7.3/../../../../msp430/lib/mcpu-430x/mmpy-16/msr20/mc20/libc.a(vuprintf.o)
 *(.near.rodata .near.rodata.*)
                0x00000000000090a2                . = ALIGN (0x2)
                0x00000000000090a2                _etext = .

.data           0x0000000000001c00     0x1274 load address 0x00000000000090a2
                0x0000000000001c00                . = ALIGN (0x2)
                0x0000000000001c00                __data_start = .
 *(.data .data.* .gnu.linkonce.d.*)
 .data.custom_process
                0x0000000000001c00        0xc udp-server.co
                0x0000000000001c00                custom_process
 .data.sensors  0x0000000000001c0c        0x4 contiki-wismote.a(contiki-wismote)
                0x0000000000001c0c                sensors
 .data.sensors_process
                0x0000000000001c10        0xc contiki-wismote.a(sensors.o)
                0x0000000000001c10                sensors_process
 .data.cc2520_process
                0x0000000000001c1c        0xc contiki-wismote.a(cc2520.o)
                0x0000000000001c1c                cc2520_process
 .data.cur_break
                0x0000000000001c28        0x2 contiki-wismote.a(msp430.o)
 .data.i_energyStt
                0x0000000000001c2a       0x10 contiki-wismote.a(battery_kinetic)
                0x0000000000001c2a                i_energyStt
 .data.alfa     0x0000000000001c3a        0x4 contiki-wismote.a(battery_kinetic)
                0x0000000000001c3a                alfa
 .data.min_drain_rate
                0x0000000000001c3e        0x4 contiki-wismote.a(battery_kinetic)
                0x0000000000001c3e                min_drain_rate
 .data.old_drain_rate
                0x0000000000001c42        0x4 contiki-wismote.a(battery_kinetic)
                0x0000000000001c42                old_drain_rate
 .data.drain_rate
                0x0000000000001c46        0x4 contiki-wismote.a(battery_kinetic)
                0x0000000000001c46                drain_rate
 .data.new_day  0x0000000000001c4a        0x2 contiki-wismote.a(battery_kinetic)
                0x0000000000001c4a                new_day
 .data.day_profile
                0x0000000000001c4c        0x2 contiki-wismote.a(battery_kinetic)
                0x0000000000001c4c                day_profile
 .data.battery_process
                0x0000000000001c4e        0xc contiki-wismote.a(battery_kinetic)
                0x0000000000001c4e                battery_process
 .data.solar_array
                0x0000000000001c5a     0x1110 contiki-wismote.a(battery_kinetic)
                0x0000000000001c5a                solar_array
 .data.ctimer_process
                0x0000000000002d6a        0xc contiki-wismote.a(ctimer.o)
                0x0000000000002d6a                ctimer_process
 .data.etimer_process
                0x0000000000002d76        0xc contiki-wismote.a(etimer.o)
                0x0000000000002d76                etimer_process
 .data.ds6_neighbors
                0x0000000000002d82        0x2 contiki-wismote.a(uip-ds6-nbr.o)
                0x0000000000002d82                ds6_neighbors
 .data.ds6_neighbors_struct
                0x0000000000002d84        0xa contiki-wismote.a(uip-ds6-nbr.o)
 .data.nbr_routes
                0x0000000000002d8e        0x2 contiki-wismote.a(uip-ds6-route.o)
                0x0000000000002d8e                nbr_routes
 .data.routememb
                0x0000000000002d90        0x8 contiki-wismote.a(uip-ds6-route.o)
 .data.defaultroutermemb
                0x0000000000002d98        0x8 contiki-wismote.a(uip-ds6-route.o)
 .data.neighborroutememb
                0x0000000000002da0        0x8 contiki-wismote.a(uip-ds6-route.o)
 .data.nbr_routes_struct
                0x0000000000002da8        0xa contiki-wismote.a(uip-ds6-route.o)
 .data.echo_request_handler
                0x0000000000002db2        0x8 contiki-wismote.a(uip-icmp6.o)
 .data.echo_reply_handler
                0x0000000000002dba        0x8 contiki-wismote.a(uip-icmp6.o)
 .data.tcpip_process
                0x0000000000002dc2        0xc contiki-wismote.a(tcpip.o)
                0x0000000000002dc2                tcpip_process
 .data.dao_sequence
                0x0000000000002dce        0x1 contiki-wismote.a(rpl-icmp6.o)
 *fill*         0x0000000000002dcf        0x1 00
 .data.dis_handler
                0x0000000000002dd0        0x8 contiki-wismote.a(rpl-icmp6.o)
 .data.dio_handler
                0x0000000000002dd8        0x8 contiki-wismote.a(rpl-icmp6.o)
 .data.dao_handler
                0x0000000000002de0        0x8 contiki-wismote.a(rpl-icmp6.o)
 .data.dao_ack_handler
                0x0000000000002de8        0x8 contiki-wismote.a(rpl-icmp6.o)
 .data.rpl_mrhof
                0x0000000000002df0       0x22 contiki-wismote.a(rpl-mrhof.o)
                0x0000000000002df0                rpl_mrhof
 .data.rpl_of0  0x0000000000002e12       0x22 contiki-wismote.a(rpl-of0.o)
                0x0000000000002e12                rpl_of0
 .data.link_stats_struct
                0x0000000000002e34        0xa contiki-wismote.a(link-stats.o)
 .data.neighbor_addr_mem
                0x0000000000002e3e        0x8 contiki-wismote.a(nbr-table.o)
 .data.buframmem
                0x0000000000002e46        0x8 contiki-wismote.a(queuebuf.o)
 .data.bufmem   0x0000000000002e4e        0x8 contiki-wismote.a(queuebuf.o)
 .data.neighbor_memb
                0x0000000000002e56        0x8 contiki-wismote.a(csma.o)
 .data.packet_memb
                0x0000000000002e5e        0x8 contiki-wismote.a(csma.o)
 .data.metadata_memb
                0x0000000000002e66        0x8 contiki-wismote.a(csma.o)
 .data.mac_pan_id
                0x0000000000002e6e        0x2 contiki-wismote.a(frame802154.o)
 .data.next     0x0000000000002e70        0x4 /opt/compilers/mspgcc-4.7.3/bin/../lib/gcc/msp430/4.7.3/../../../../msp430/lib/mcpu-430x/mmpy-16/msr20/mc20/libc.a(rand.o)
 *(.near.data .near.data.*)
                0x0000000000002e74                . = ALIGN (0x2)
                0x0000000000002e74                _edata = .
                0x00000000000090a2                __data_load_start = LOADADDR (.data)
                0x0000000000001274                __data_size = SIZEOF (.data)

.bss            0x0000000000002e74     0x1e4c load address 0x000000000000a316
                0x0000000000002e74                __bss_start = .
 *(.bss .bss.*)
 .bss.server_conn
                0x0000000000002e74        0x2 udp-server.co
 .bss.irq_energest.4431
                0x0000000000002e76        0x4 obj_wismote/contiki-wismote-main.o
 .bss.debouncetimer
                0x0000000000002e7a        0x8 contiki-wismote.a(button-sensor.o)
 .bss.node_id   0x0000000000002e82        0x2 contiki-wismote.a(node-id.o)
                0x0000000000002e82                node_id
 .bss.num_sensors
                0x0000000000002e84        0x1 contiki-wismote.a(sensors.o)
 *fill*         0x0000000000002e85        0x1 00
 .bss.i.2475    0x0000000000002e86        0x2 contiki-wismote.a(sensors.o)
 .bss.events.2476
                0x0000000000002e88        0x2 contiki-wismote.a(sensors.o)
 .bss.last_packet_timestamp
                0x0000000000002e8a        0x2 contiki-wismote.a(cc2520.o)
 .bss.receive_on
                0x0000000000002e8c        0x1 contiki-wismote.a(cc2520.o)
 .bss.locked    0x0000000000002e8d        0x1 contiki-wismote.a(cc2520.o)
 .bss.lock_off  0x0000000000002e8e        0x1 contiki-wismote.a(cc2520.o)
 .bss.lock_on   0x0000000000002e8f        0x1 contiki-wismote.a(cc2520.o)
 .bss.channel   0x0000000000002e90        0x2 contiki-wismote.a(cc2520.o)
 .bss.transmitting
                0x0000000000002e92        0x1 contiki-wismote.a(uart1.o)
 *fill*         0x0000000000002e93        0x1 00
 .bss.uart1_input_handler
                0x0000000000002e94        0x4 contiki-wismote.a(uart1.o)
 .bss.last_tar  0x0000000000002e98        0x2 contiki-wismote.a(clock.o)
 .bss.count     0x0000000000002e9a        0x4 contiki-wismote.a(clock.o)
 .bss.seconds   0x0000000000002e9e        0x4 contiki-wismote.a(clock.o)
 .bss.leds      0x0000000000002ea2        0x1 contiki-wismote.a(leds.o)
 *fill*         0x0000000000002ea3        0x1 00
 .bss.counter   0x0000000000002ea4        0x2 contiki-wismote.a(watchdog.o)
 .bss.interval_consumption
                0x0000000000002ea6        0x4 contiki-wismote.a(battery_kinetic)
                0x0000000000002ea6                interval_consumption
 .bss.periodic_consumption
                0x0000000000002eaa        0x4 contiki-wismote.a(battery_kinetic)
                0x0000000000002eaa                periodic_consumption
 .bss.total_consumption
                0x0000000000002eae        0x4 contiki-wismote.a(battery_kinetic)
                0x0000000000002eae                total_consumption
 .bss.solar_array_couter
                0x0000000000002eb2        0x2 contiki-wismote.a(battery_kinetic)
                0x0000000000002eb2                solar_array_couter
 .bss.timer_couter
                0x0000000000002eb4        0x2 contiki-wismote.a(battery_kinetic)
                0x0000000000002eb4                timer_couter
 .bss.periodic.2869
                0x0000000000002eb6        0xc contiki-wismote.a(battery_kinetic)
 .bss.last_cpu.2808
                0x0000000000002ec2        0x4 contiki-wismote.a(battery_kinetic)
 .bss.last_lpm.2809
                0x0000000000002ec6        0x4 contiki-wismote.a(battery_kinetic)
 .bss.last_transmit.2810
                0x0000000000002eca        0x4 contiki-wismote.a(battery_kinetic)
 .bss.last_listen.2811
                0x0000000000002ece        0x4 contiki-wismote.a(battery_kinetic)
 .bss.last_idle_transmit.2812
                0x0000000000002ed2        0x4 contiki-wismote.a(battery_kinetic)
 .bss.last_idle_listen.2813
                0x0000000000002ed6        0x4 contiki-wismote.a(battery_kinetic)
 .bss.initialized
                0x0000000000002eda        0x1 contiki-wismote.a(ctimer.o)
 *fill*         0x0000000000002edb        0x1 00
 .bss.ctimer_list_list
                0x0000000000002edc        0x2 contiki-wismote.a(ctimer.o)
 .bss.timerlist
                0x0000000000002ede        0x2 contiki-wismote.a(etimer.o)
 .bss.next_expiration
                0x0000000000002ee0        0x4 contiki-wismote.a(etimer.o)
 .bss.poll_requested
                0x0000000000002ee4        0x1 contiki-wismote.a(process.o)
 *fill*         0x0000000000002ee5        0x1 00
 .bss.process_current
                0x0000000000002ee6        0x2 contiki-wismote.a(process.o)
                0x0000000000002ee6                process_current
 .bss.process_list
                0x0000000000002ee8        0x2 contiki-wismote.a(process.o)
                0x0000000000002ee8                process_list
 .bss.lastevent
                0x0000000000002eea        0x1 contiki-wismote.a(process.o)
 .bss.fevent    0x0000000000002eeb        0x1 contiki-wismote.a(process.o)
 .bss.nevents   0x0000000000002eec        0x1 contiki-wismote.a(process.o)
 *fill*         0x0000000000002eed        0x1 00
 .bss.events    0x0000000000002eee       0x30 contiki-wismote.a(process.o)
 .bss.next_rtimer
                0x0000000000002f1e        0x2 contiki-wismote.a(rtimer.o)
 .bss.callback  0x0000000000002f20        0x2 contiki-wismote.a(sicslowpan.o)
 .bss.addr_contexts
                0x0000000000002f22       0x14 contiki-wismote.a(sicslowpan.o)
 .bss.uncomp_hdr_len
                0x0000000000002f36        0x1 contiki-wismote.a(sicslowpan.o)
 .bss.packetbuf_hdr_len
                0x0000000000002f37        0x1 contiki-wismote.a(sicslowpan.o)
 .bss.packetbuf_ptr
                0x0000000000002f38        0x2 contiki-wismote.a(sicslowpan.o)
 .bss.last_tx_status
                0x0000000000002f3a        0x2 contiki-wismote.a(sicslowpan.o)
 .bss.my_tag    0x0000000000002f3c        0x2 contiki-wismote.a(sicslowpan.o)
 .bss.packetbuf_payload_len
                0x0000000000002f3e        0x2 contiki-wismote.a(sicslowpan.o)
 .bss.hc06_ptr  0x0000000000002f40        0x2 contiki-wismote.a(sicslowpan.o)
 .bss.context   0x0000000000002f42        0x2 contiki-wismote.a(sicslowpan.o)
 .bss.last_rssi
                0x0000000000002f44        0x2 contiki-wismote.a(sicslowpan.o)
 .bss.frag_info
                0x0000000000002f46      0x168 contiki-wismote.a(sicslowpan.o)
 .bss.frag_buf  0x00000000000030ae      0x558 contiki-wismote.a(sicslowpan.o)
 .bss.uip_ext_opt_offset
                0x0000000000003606        0x1 contiki-wismote.a(uip6.o)
                0x0000000000003606                uip_ext_opt_offset
 .bss.uip_ext_len
                0x0000000000003607        0x1 contiki-wismote.a(uip6.o)
                0x0000000000003607                uip_ext_len
 .bss.uip_ext_bitmap
                0x0000000000003608        0x1 contiki-wismote.a(uip6.o)
                0x0000000000003608                uip_ext_bitmap
 *fill*         0x0000000000003609        0x1 00
 .bss.lastport  0x000000000000360a        0x2 contiki-wismote.a(uip6.o)
 .bss.iss       0x000000000000360c        0x4 contiki-wismote.a(uip6.o)
 .bss.loc_fipaddr
                0x0000000000003610       0x10 contiki-wismote.a(uip-ds6.o)
 .bss.locaddr   0x0000000000003620        0x2 contiki-wismote.a(uip-ds6.o)
 .bss.locprefix
                0x0000000000003622        0x2 contiki-wismote.a(uip-ds6.o)
 .bss.locmaddr  0x0000000000003624        0x2 contiki-wismote.a(uip-ds6.o)
 .bss._ds6_neighbors_mem
                0x0000000000003626       0xc8 contiki-wismote.a(uip-ds6-nbr.o)
 .bss.notificationlist_list
                0x00000000000036ee        0x2 contiki-wismote.a(uip-ds6-route.o)
 .bss.defaultrouterlist_list
                0x00000000000036f0        0x2 contiki-wismote.a(uip-ds6-route.o)
 .bss.routelist_list
                0x00000000000036f2        0x2 contiki-wismote.a(uip-ds6-route.o)
 .bss.num_routes
                0x00000000000036f4        0x2 contiki-wismote.a(uip-ds6-route.o)
 .bss.routememb_memb_count
                0x00000000000036f6        0xa contiki-wismote.a(uip-ds6-route.o)
 .bss.routememb_memb_mem
                0x0000000000003700      0x140 contiki-wismote.a(uip-ds6-route.o)
 .bss.defaultroutermemb_memb_count
                0x0000000000003840        0x2 contiki-wismote.a(uip-ds6-route.o)
 .bss.defaultroutermemb_memb_mem
                0x0000000000003842       0x38 contiki-wismote.a(uip-ds6-route.o)
 .bss.neighborroutememb_memb_count
                0x000000000000387a        0xa contiki-wismote.a(uip-ds6-route.o)
 .bss.neighborroutememb_memb_mem
                0x0000000000003884       0x28 contiki-wismote.a(uip-ds6-route.o)
 .bss._nbr_routes_mem
                0x00000000000038ac       0x28 contiki-wismote.a(uip-ds6-route.o)
 .bss.input_handler_list_list
                0x00000000000038d4        0x2 contiki-wismote.a(uip-icmp6.o)
 .bss.tmp_ipaddr
                0x00000000000038d6       0x10 contiki-wismote.a(uip-icmp6.o)
 .bss.echo_reply_callback_list_list
                0x00000000000038e6        0x2 contiki-wismote.a(uip-icmp6.o)
 .bss.outputfunc
                0x00000000000038e8        0x4 contiki-wismote.a(tcpip.o)
 .bss.s         0x00000000000038ec       0x22 contiki-wismote.a(tcpip.o)
 .bss.periodic  0x000000000000390e        0xc contiki-wismote.a(tcpip.o)
 .bss.mode      0x000000000000391a        0x2 contiki-wismote.a(rpl.o)
 .bss.next_dis  0x000000000000391c        0x2 contiki-wismote.a(rpl-timers.o)
 .bss.periodic_timer
                0x000000000000391e       0x16 contiki-wismote.a(rpl-timers.o)
 .bss.dio_send_ok
                0x0000000000003934        0x1 contiki-wismote.a(rpl-timers.o)
 *fill*         0x0000000000003935        0x1 00
 .bss._link_stats_mem
                0x0000000000003936       0x64 contiki-wismote.a(link-stats.o)
 .bss.num_tables
                0x000000000000399a        0x2 contiki-wismote.a(nbr-table.o)
 .bss.all_tables
                0x000000000000399c       0x10 contiki-wismote.a(nbr-table.o)
 .bss.used_map  0x00000000000039ac        0xa contiki-wismote.a(nbr-table.o)
 .bss.nbr_table_keys_list
                0x00000000000039b6        0x2 contiki-wismote.a(nbr-table.o)
 .bss.locked_map
                0x00000000000039b8        0xa contiki-wismote.a(nbr-table.o)
 .bss.neighbor_addr_mem_memb_count
                0x00000000000039c2        0xa contiki-wismote.a(nbr-table.o)
 .bss.neighbor_addr_mem_memb_mem
                0x00000000000039cc       0x64 contiki-wismote.a(nbr-table.o)
 .bss.bufptr    0x0000000000003a30        0x2 contiki-wismote.a(packetbuf.o)
 .bss.buflen    0x0000000000003a32        0x2 contiki-wismote.a(packetbuf.o)
 .bss.hdrlen    0x0000000000003a34        0x1 contiki-wismote.a(packetbuf.o)
 *fill*         0x0000000000003a35        0x1 00
 .bss.packetbuf_aligned
                0x0000000000003a36       0x80 contiki-wismote.a(packetbuf.o)
 .bss.buframmem_memb_count
                0x0000000000003ab6        0x8 contiki-wismote.a(queuebuf.o)
 .bss.buframmem_memb_mem
                0x0000000000003abe      0x580 contiki-wismote.a(queuebuf.o)
 .bss.bufmem_memb_count
                0x000000000000403e        0x8 contiki-wismote.a(queuebuf.o)
 .bss.bufmem_memb_mem
                0x0000000000004046       0x10 contiki-wismote.a(queuebuf.o)
 .bss.initialized.3283
                0x0000000000004056        0x1 contiki-wismote.a(csma.o)
 *fill*         0x0000000000004057        0x1 00
 .bss.seqno.3284
                0x0000000000004058        0x2 contiki-wismote.a(csma.o)
 .bss.neighbor_list_list
                0x000000000000405a        0x2 contiki-wismote.a(csma.o)
 .bss.neighbor_memb_memb_count
                0x000000000000405c        0x2 contiki-wismote.a(csma.o)
 .bss.neighbor_memb_memb_mem
                0x000000000000405e       0x4c contiki-wismote.a(csma.o)
 .bss.packet_memb_memb_count
                0x00000000000040aa        0x8 contiki-wismote.a(csma.o)
 .bss.packet_memb_memb_mem
                0x00000000000040b2       0x30 contiki-wismote.a(csma.o)
 .bss.metadata_memb_memb_count
                0x00000000000040e2        0x8 contiki-wismote.a(csma.o)
 .bss.metadata_memb_memb_mem
                0x00000000000040ea       0x40 contiki-wismote.a(csma.o)
 .bss.initialized
                0x000000000000412a        0x1 contiki-wismote.a(framer-802154.o)
 .bss.mac_dsn   0x000000000000412b        0x1 contiki-wismote.a(framer-802154.o)
 .bss.cycle_start
                0x000000000000412c        0x2 contiki-wismote.a(contikimac.o)
 .bss.radio_is_on
                0x000000000000412e        0x1 contiki-wismote.a(contikimac.o)
 .bss.we_are_sending
                0x000000000000412f        0x1 contiki-wismote.a(contikimac.o)
 .bss.contikimac_keep_radio_on
                0x0000000000004130        0x1 contiki-wismote.a(contikimac.o)
 .bss.contikimac_is_on
                0x0000000000004131        0x1 contiki-wismote.a(contikimac.o)
 .bss.rt        0x0000000000004132        0x8 contiki-wismote.a(contikimac.o)
 .bss.pt        0x000000000000413a        0x2 contiki-wismote.a(contikimac.o)
 .bss.packet_seen.4001
                0x000000000000413c        0x1 contiki-wismote.a(contikimac.o)
 .bss.count.4002
                0x000000000000413d        0x1 contiki-wismote.a(contikimac.o)
 .bss.we_are_receiving_burst
                0x000000000000413e        0x2 contiki-wismote.a(contikimac.o)
 .bss.start.4007
                0x0000000000004140        0x2 contiki-wismote.a(contikimac.o)
 .bss.silence_periods.4008
                0x0000000000004142        0x1 contiki-wismote.a(contikimac.o)
 .bss.periods.4009
                0x0000000000004143        0x1 contiki-wismote.a(contikimac.o)
 .bss.ct.4082   0x0000000000004144       0x16 contiki-wismote.a(contikimac.o)
 .bss.num_children
                0x000000000000415a        0x2 contiki-wismote.a(rpl-nbr-policy.)
 .bss.worst_rank_nbr
                0x000000000000415c        0x2 contiki-wismote.a(rpl-nbr-policy.)
 .bss.timer_init
                0x000000000000415e        0x2 contiki-wismote.a(rpl-nbr-policy.)
 .bss.periodic_timer
                0x0000000000004160       0x16 contiki-wismote.a(rpl-nbr-policy.)
 .bss.worst_rank
                0x0000000000004176        0x2 contiki-wismote.a(rpl-nbr-policy.)
 .bss.num_parents
                0x0000000000004178        0x2 contiki-wismote.a(rpl-nbr-policy.)
 .bss.num_free  0x000000000000417a        0x2 contiki-wismote.a(rpl-nbr-policy.)
 .bss.received_seqnos
                0x000000000000417c       0xa0 contiki-wismote.a(mac-sequence.o)
 *(.near.bss .near.bss.*)
 *(COMMON)
 COMMON         0x000000000000421c        0x2 contiki-wismote.a(contiki-wismote)
                0x000000000000421c                sensors_flags
 COMMON         0x000000000000421e        0x1 contiki-wismote.a(sensors.o)
                0x000000000000421e                sensors_event
 *fill*         0x000000000000421f        0x1 00
 COMMON         0x0000000000004220       0x13 contiki-wismote.a(cc2520.o)
                0x0000000000004220                cc2520_sfd_counter
                0x0000000000004222                cc2520_sfd_start_time
                0x0000000000004224                cc2520_sfd_end_time
                0x0000000000004226                cc2520_time_of_departure
                0x0000000000004228                cc2520_packets_seen
                0x000000000000422a                cc2520_packets_read
                0x000000000000422c                cc2520_last_rssi
                0x000000000000422e                cc2520_time_of_arrival
                0x0000000000004230                cc2520_authority_level_of_sender
                0x0000000000004232                cc2520_last_correlation
 *fill*         0x0000000000004233        0x1 00
 COMMON         0x0000000000004234        0x2 contiki-wismote.a(msp430.o)
                0x0000000000004234                msp430_dco_required
 COMMON         0x0000000000004236       0x46 contiki-wismote.a(battery_kinetic)
                0x0000000000004236                solar_charging_func
                0x000000000000423a                batt
                0x000000000000425a                set_state
                0x000000000000425c                new_drain_rate
                0x0000000000004260                btt_interval_min
                0x0000000000004262                stats_com
                0x000000000000427a                btt_interval_sec
 COMMON         0x000000000000427c        0x8 contiki-wismote.a(compower.o)
                0x000000000000427c                compower_idle_activity
 COMMON         0x0000000000004284       0x56 contiki-wismote.a(energest.o)
                0x0000000000004284                energest_total_time
                0x00000000000042b4                energest_total_count
                0x00000000000042b6                energest_current_mode
                0x00000000000042c2                energest_current_time
 COMMON         0x00000000000042da       0x54 contiki-wismote.a(instance_pool.o)
                0x00000000000042da                store_instance
                0x0000000000004320                identification
 COMMON         0x000000000000432e        0x1 contiki-wismote.a(process.o)
                0x000000000000432e                process_maxevents
 *fill*         0x000000000000432f        0x1 00
 COMMON         0x0000000000004330      0x334 contiki-wismote.a(uip6.o)
                0x0000000000004330                uip_len
                0x0000000000004332                uip_sappdata
                0x0000000000004334                uip_acc32
                0x0000000000004338                uip_lladdr
                0x0000000000004340                uip_aligned_buf
                0x0000000000004430                uip_flags
                0x0000000000004432                uip_next_hdr
                0x0000000000004434                uip_udp_conn
                0x0000000000004436                uip_appdata
                0x0000000000004438                uip_conn
                0x000000000000443a                uip_conns
                0x00000000000044ea                uip_listenports
                0x00000000000044fa                uip_slen
                0x00000000000044fc                uip_udp_conns
 COMMON         0x0000000000004664      0x15c contiki-wismote.a(uip-ds6.o)
                0x0000000000004664                uip_ds6_timer_ra
                0x000000000000466c                uip_ds6_if
                0x0000000000004758                uip_ds6_netif_addr_list_offset
                0x0000000000004759                uip_ds6_addr_size
                0x000000000000475a                uip_ds6_prefix_list
                0x00000000000047b4                uip_ds6_timer_periodic
 COMMON         0x00000000000047c0        0x1 contiki-wismote.a(tcpip.o)
                0x00000000000047c0                tcpip_event
 *fill*         0x00000000000047c1        0x1 00
 COMMON         0x00000000000047c2      0x4b2 contiki-wismote.a(rpl-dag.o)
                0x00000000000047c2                last_joined_instance
                0x00000000000047c4                instance_table
 COMMON         0x0000000000004c74        0x8 contiki-wismote.a(linkaddr.o)
                0x0000000000004c74                linkaddr_node_addr
 COMMON         0x0000000000004c7c       0x16 contiki-wismote.a(link-stats.o)
                0x0000000000004c7c                periodic_timer
 COMMON         0x0000000000004c92       0x2e contiki-wismote.a(packetbuf.o)
                0x0000000000004c92                packetbuf_addrs
                0x0000000000004ca2                packetbuf_attrs
                0x0000000000004cc0                . = ALIGN (0x2)
                0x0000000000004cc0                __bss_end = .
                0x0000000000001e4c                __bss_size = SIZEOF (.bss)

.noinit         0x0000000000004cc0        0x2 load address 0x000000000000a316
                0x0000000000004cc0                . = ALIGN (0x2)
                0x0000000000004cc0                __noinit_start = .
 *(.noinit .noinit.*)
 .noinit.crt0   0x0000000000004cc0        0x2 /opt/compilers/mspgcc-4.7.3/bin/../lib/gcc/msp430/4.7.3/mcpu-430x/mmpy-16/msr20/mc20/libcrt0.a(__watchdog_support.o)
                0x0000000000004cc0                __wdt_clear_value
                0x0000000000004cc2                . = ALIGN (0x2)
                0x0000000000004cc2                __noinit_end = .
                0x0000000000004cc2                . = ALIGN (0x2)
                0x0000000000004cc2                _end = .

.infomem        0x0000000000001800        0x0
                0x0000000000001800                . = ALIGN (0x2)
 *(.infomem .infomem.*)

.infomemnobits  0x0000000000001800        0x0
                0x0000000000001800                . = ALIGN (0x2)
 *(.infomemnobits .infomemnobits.*)

.infoa          0x0000000000001980        0x0
                0x0000000000001980                . = ALIGN (0x2)
 *(.infoa .infoa.*)

.infob          0x0000000000001900        0x0
                0x0000000000001900                . = ALIGN (0x2)
 *(.infob .infob.*)

.infoc          0x0000000000001880        0x0
                0x0000000000001880                . = ALIGN (0x2)
 *(.infoc .infoc.*)

.infod          0x0000000000001800        0x0
                0x0000000000001800                . = ALIGN (0x2)
 *(.infod .infod.*)
                0x000000000000ffff                PROVIDE (__vte_0, 0xffff)
                0x000000000000ffff                PROVIDE (__vte_1, 0xffff)
                0x000000000000ffff                PROVIDE (__vte_2, 0xffff)
                0x000000000000ffff                PROVIDE (__vte_3, 0xffff)
                0x000000000000ffff                PROVIDE (__vte_4, 0xffff)
                0x000000000000ffff                PROVIDE (__vte_5, 0xffff)
                0x000000000000ffff                PROVIDE (__vte_6, 0xffff)
                0x000000000000ffff                PROVIDE (__vte_7, 0xffff)
                0x000000000000ffff                PROVIDE (__vte_8, 0xffff)
                0x000000000000ffff                PROVIDE (__vte_9, 0xffff)
                0x000000000000ffff                PROVIDE (__vte_10, 0xffff)
                0x000000000000ffff                PROVIDE (__vte_11, 0xffff)
                0x000000000000ffff                PROVIDE (__vte_12, 0xffff)
                0x000000000000ffff                PROVIDE (__vte_13, 0xffff)
                0x000000000000ffff                PROVIDE (__vte_14, 0xffff)
                0x000000000000ffff                PROVIDE (__vte_15, 0xffff)
                0x000000000000ffff                PROVIDE (__vte_16, 0xffff)
                0x000000000000ffff                PROVIDE (__vte_17, 0xffff)
                0x000000000000ffff                PROVIDE (__vte_18, 0xffff)
                0x000000000000ffff                PROVIDE (__vte_19, 0xffff)
                0x000000000000ffff                PROVIDE (__vte_20, 0xffff)
                0x000000000000ffff                PROVIDE (__vte_21, 0xffff)
                0x000000000000ffff                PROVIDE (__vte_22, 0xffff)
                0x000000000000ffff                PROVIDE (__vte_23, 0xffff)
                0x000000000000ffff                PROVIDE (__vte_24, 0xffff)
                0x000000000000ffff                PROVIDE (__vte_25, 0xffff)
                0x000000000000ffff                PROVIDE (__vte_26, 0xffff)
                0x000000000000ffff                PROVIDE (__vte_27, 0xffff)
                0x000000000000ffff                PROVIDE (__vte_28, 0xffff)
                0x000000000000ffff                PROVIDE (__vte_29, 0xffff)
                0x000000000000ffff                PROVIDE (__vte_30, 0xffff)
                0x000000000000ffff                PROVIDE (__vte_31, 0xffff)

.vectors        0x000000000000ff80       0x80
                0x000000000000ff80                __vectors_start = .
 *(.vectors*)
 .vectors       0x000000000000ff80       0x80 /opt/compilers/mspgcc-4.7.3/bin/../lib/gcc/msp430/4.7.3/mcpu-430x/mmpy-16/msr20/mc20/crt0ivtbl64.o
                0x000000000000ff80                __ivtbl_64
                0x0000000000010000                _vectors_end = .

.fartext        0x0000000000010000        0x0
                0x0000000000010000                . = ALIGN (0x2)
 *(.fartext .fartext.*)

.far.text       0x0000000000010000     0xad18
                0x0000000000010000                . = ALIGN (0x2)
 *(.far.text .far.text.*)
 .far.text.rpl_set_metric.constprop.0
                0x0000000000010000       0x3c udp-server.co
 .far.text.process_thread_custom_process
                0x000000000001003c      0x27e udp-server.co
 .far.text.init_platform
                0x00000000000102ba        0xc contiki-wismote.a(contiki-wismote)
                0x00000000000102ba                init_platform
 .far.text.status
                0x00000000000102c6       0x18 contiki-wismote.a(button-sensor.o)
 .far.text.value
                0x00000000000102de       0x20 contiki-wismote.a(button-sensor.o)
 .far.text.configure
                0x00000000000102fe       0x4c contiki-wismote.a(button-sensor.o)
 .far.text.wait_ready
                0x000000000001034a       0x72 contiki-wismote.a(xmem.o)
 .far.text.xmem_init
                0x00000000000103bc       0x5e contiki-wismote.a(xmem.o)
                0x00000000000103bc                xmem_init
 .far.text.xmem_pread
                0x000000000001041a       0xec contiki-wismote.a(xmem.o)
                0x000000000001041a                xmem_pread
 .far.text.node_id_restore
                0x0000000000010506       0x38 contiki-wismote.a(node-id.o)
                0x0000000000010506                node_id_restore
 .far.text.process_thread_sensors_process
                0x000000000001053e       0xc2 contiki-wismote.a(sensors.o)
 .far.text.sensors_changed
                0x0000000000010600       0x2a contiki-wismote.a(sensors.o)
                0x0000000000010600                sensors_changed
 .far.text.get_value
                0x000000000001062a       0x4a contiki-wismote.a(cc2520.o)
 .far.text.get_object
                0x0000000000010674        0x4 contiki-wismote.a(cc2520.o)
 .far.text.set_object
                0x0000000000010678        0x4 contiki-wismote.a(cc2520.o)
 .far.text.cc2520_receiving_packet
                0x000000000001067c        0x8 contiki-wismote.a(cc2520.o)
 .far.text.pending_packet
                0x0000000000010684        0xe contiki-wismote.a(cc2520.o)
 .far.text.status
                0x0000000000010692       0x52 contiki-wismote.a(cc2520.o)
 .far.text.strobe
                0x00000000000106e4       0x4e contiki-wismote.a(cc2520.o)
 .far.text.on   0x0000000000010732       0x46 contiki-wismote.a(cc2520.o)
 .far.text.flushrx
                0x0000000000010778       0xf2 contiki-wismote.a(cc2520.o)
 .far.text.off  0x000000000001086a       0x72 contiki-wismote.a(cc2520.o)
 .far.text.RELEASE_LOCK
                0x00000000000108dc       0x28 contiki-wismote.a(cc2520.o)
 .far.text.getrxdata
                0x0000000000010904       0x7e contiki-wismote.a(cc2520.o)
 .far.text.setreg
                0x0000000000010982       0x6e contiki-wismote.a(cc2520.o)
 .far.text.cc2520_prepare
                0x00000000000109f0       0xde contiki-wismote.a(cc2520.o)
 .far.text.getreg
                0x0000000000010ace       0x7c contiki-wismote.a(cc2520.o)
 .far.text.cc2520_on
                0x0000000000010b4a       0x22 contiki-wismote.a(cc2520.o)
                0x0000000000010b4a                cc2520_on
 .far.text.cc2520_off
                0x0000000000010b6c       0x30 contiki-wismote.a(cc2520.o)
                0x0000000000010b6c                cc2520_off
 .far.text.cc2520_cca
                0x0000000000010b9c       0x76 contiki-wismote.a(cc2520.o)
 .far.text.cc2520_read
                0x0000000000010c12       0xfe contiki-wismote.a(cc2520.o)
 .far.text.process_thread_cc2520_process
                0x0000000000010d10       0x54 contiki-wismote.a(cc2520.o)
 .far.text.cc2520_set_channel
                0x0000000000010d64       0x78 contiki-wismote.a(cc2520.o)
                0x0000000000010d64                cc2520_set_channel
 .far.text.set_value
                0x0000000000010ddc       0x3c contiki-wismote.a(cc2520.o)
 .far.text.cc2520_set_pan_addr
                0x0000000000010e18      0x1aa contiki-wismote.a(cc2520.o)
                0x0000000000010e18                cc2520_set_pan_addr
 .far.text.cc2520_init
                0x0000000000010fc2      0x17a contiki-wismote.a(cc2520.o)
                0x0000000000010fc2                cc2520_init
 .far.text.cc2520_interrupt
                0x000000000001113c       0x1c contiki-wismote.a(cc2520.o)
                0x000000000001113c                cc2520_interrupt
 .far.text.cc2520_get_txpower
                0x0000000000011158       0x1a contiki-wismote.a(cc2520.o)
                0x0000000000011158                cc2520_get_txpower
 .far.text.cc2520_transmit
                0x0000000000011172      0x148 contiki-wismote.a(cc2520.o)
 .far.text.cc2520_send
                0x00000000000112ba       0x12 contiki-wismote.a(cc2520.o)
 .far.text.cc2520_arch_init
                0x00000000000112cc       0x48 contiki-wismote.a(cc2520-arch.o)
                0x00000000000112cc                cc2520_arch_init
 .far.text.uart1_active
                0x0000000000011314        0xe contiki-wismote.a(uart1.o)
                0x0000000000011314                uart1_active
 .far.text.uart1_writeb
                0x0000000000011322       0x16 contiki-wismote.a(uart1.o)
                0x0000000000011322                uart1_writeb
 .far.text.uart1_init
                0x0000000000011338       0x64 contiki-wismote.a(uart1.o)
                0x0000000000011338                uart1_init
 .far.text.putchar
                0x000000000001139c       0x10 contiki-wismote.a(uart1-putchar.o)
                0x000000000001139c                putchar
 .far.text.msp430_init_dco
                0x00000000000113ac       0x20 contiki-wismote.a(msp430.o)
                0x00000000000113ac                msp430_init_dco
 .far.text.msp430_cpu_init
                0x00000000000113cc       0x82 contiki-wismote.a(msp430.o)
                0x00000000000113cc                msp430_cpu_init
 .far.text.splhigh_
                0x000000000001144e        0x8 contiki-wismote.a(msp430.o)
                0x000000000001144e                splhigh_
 .far.text.clock_time
                0x0000000000011456       0x1a contiki-wismote.a(clock.o)
                0x0000000000011456                clock_time
 .far.text.clock_init
                0x0000000000011470       0x28 contiki-wismote.a(clock.o)
                0x0000000000011470                clock_init
 .far.text.clock_delay
                0x0000000000011498        0xc contiki-wismote.a(clock.o)
                0x0000000000011498                clock_delay
 .far.text.clock_wait
                0x00000000000114a4       0x24 contiki-wismote.a(clock.o)
                0x00000000000114a4                clock_wait
 .far.text.clock_seconds
                0x00000000000114c8       0x1a contiki-wismote.a(clock.o)
                0x00000000000114c8                clock_seconds
 .far.text.show_leds
                0x00000000000114e2       0xe8 contiki-wismote.a(leds.o)
 .far.text.leds_init
                0x00000000000115ca        0xa contiki-wismote.a(leds.o)
                0x00000000000115ca                leds_init
 .far.text.leds_on
                0x00000000000115d4        0xa contiki-wismote.a(leds.o)
                0x00000000000115d4                leds_on
 .far.text.leds_off
                0x00000000000115de        0xe contiki-wismote.a(leds.o)
                0x00000000000115de                leds_off
 .far.text.leds_arch_init
                0x00000000000115ec       0x22 contiki-wismote.a(leds-arch.o)
                0x00000000000115ec                leds_arch_init
 .far.text.leds_arch_set
                0x000000000001160e       0x4c contiki-wismote.a(leds-arch.o)
                0x000000000001160e                leds_arch_set
 .far.text.watchdog_start
                0x000000000001165a       0x14 contiki-wismote.a(watchdog.o)
                0x000000000001165a                watchdog_start
 .far.text.watchdog_periodic
                0x000000000001166e       0x12 contiki-wismote.a(watchdog.o)
                0x000000000001166e                watchdog_periodic
 .far.text.watchdog_stop
                0x0000000000011680       0x16 contiki-wismote.a(watchdog.o)
                0x0000000000011680                watchdog_stop
 .far.text.watchdog_init
                0x0000000000011696       0x12 contiki-wismote.a(watchdog.o)
                0x0000000000011696                watchdog_init
 .far.text.rtimer_arch_init
                0x00000000000116a8        0xe contiki-wismote.a(rtimer-arch.o)
                0x00000000000116a8                rtimer_arch_init
 .far.text.rtimer_arch_now
                0x00000000000116b6        0xe contiki-wismote.a(rtimer-arch.o)
                0x00000000000116b6                rtimer_arch_now
 .far.text.rtimer_arch_schedule
                0x00000000000116c4        0x6 contiki-wismote.a(rtimer-arch.o)
                0x00000000000116c4                rtimer_arch_schedule
 .far.text.autostart_start
                0x00000000000116ca       0x16 contiki-wismote.a(autostart.o)
                0x00000000000116ca                autostart_start
 .far.text.battery_start
                0x00000000000116e0      0x174 contiki-wismote.a(battery_kinetic)
                0x00000000000116e0                battery_start
 .far.text.update_time_stats
                0x0000000000011854      0x12c contiki-wismote.a(battery_kinetic)
                0x0000000000011854                update_time_stats
 .far.text.kinetic_model
                0x0000000000011980      0x1ce contiki-wismote.a(battery_kinetic)
                0x0000000000011980                kinetic_model
 .far.text.update_battery
                0x0000000000011b4e      0x3de contiki-wismote.a(battery_kinetic)
                0x0000000000011b4e                update_battery
 .far.text.process_thread_battery_process
                0x0000000000011f2c       0x5c contiki-wismote.a(battery_kinetic)
 .far.text.get_batt1
                0x0000000000011f88        0xa contiki-wismote.a(battery_kinetic)
                0x0000000000011f88                get_batt1
 .far.text.get_batt2
                0x0000000000011f92        0xa contiki-wismote.a(battery_kinetic)
                0x0000000000011f92                get_batt2
 .far.text.get_max_charge
                0x0000000000011f9c        0xa contiki-wismote.a(battery_kinetic)
                0x0000000000011f9c                get_max_charge
 .far.text.process_thread_ctimer_process
                0x0000000000011fa6       0xa0 contiki-wismote.a(ctimer.o)
 .far.text.ctimer_init
                0x0000000000012046       0x18 contiki-wismote.a(ctimer.o)
                0x0000000000012046                ctimer_init
 .far.text.ctimer_set_with_process
                0x000000000001205e       0x4a contiki-wismote.a(ctimer.o)
                0x000000000001205e                ctimer_set_with_process
 .far.text.ctimer_set
                0x00000000000120a8       0x10 contiki-wismote.a(ctimer.o)
                0x00000000000120a8                ctimer_set
 .far.text.ctimer_reset
                0x00000000000120b8       0x2c contiki-wismote.a(ctimer.o)
                0x00000000000120b8                ctimer_reset
 .far.text.ctimer_restart
                0x00000000000120e4       0x2c contiki-wismote.a(ctimer.o)
                0x00000000000120e4                ctimer_restart
 .far.text.ctimer_stop
                0x0000000000012110       0x28 contiki-wismote.a(ctimer.o)
                0x0000000000012110                ctimer_stop
 .far.text.energest_init
                0x0000000000012138       0x24 contiki-wismote.a(energest.o)
                0x0000000000012138                energest_init
 .far.text.energest_type_time
                0x000000000001215c       0x3c contiki-wismote.a(energest.o)
                0x000000000001215c                energest_type_time
 .far.text.energest_type_set
                0x0000000000012198        0xc contiki-wismote.a(energest.o)
                0x0000000000012198                energest_type_set
 .far.text.energest_flush
                0x00000000000121a4       0x38 contiki-wismote.a(energest.o)
                0x00000000000121a4                energest_flush
 .far.text.update_time
                0x00000000000121dc       0x70 contiki-wismote.a(etimer.o)
 .far.text.etimer_request_poll
                0x000000000001224c        0xa contiki-wismote.a(etimer.o)
                0x000000000001224c                etimer_request_poll
 .far.text.process_thread_etimer_process
                0x0000000000012256       0xc4 contiki-wismote.a(etimer.o)
 .far.text.add_timer
                0x000000000001231a       0x40 contiki-wismote.a(etimer.o)
 .far.text.etimer_set
                0x000000000001235a       0x12 contiki-wismote.a(etimer.o)
                0x000000000001235a                etimer_set
 .far.text.etimer_reset
                0x000000000001236c       0x12 contiki-wismote.a(etimer.o)
                0x000000000001236c                etimer_reset
 .far.text.etimer_restart
                0x000000000001237e       0x12 contiki-wismote.a(etimer.o)
                0x000000000001237e                etimer_restart
 .far.text.etimer_expired
                0x0000000000012390        0xe contiki-wismote.a(etimer.o)
                0x0000000000012390                etimer_expired
 .far.text.etimer_expiration_time
                0x000000000001239e       0x14 contiki-wismote.a(etimer.o)
                0x000000000001239e                etimer_expiration_time
 .far.text.etimer_pending
                0x00000000000123b2        0xc contiki-wismote.a(etimer.o)
                0x00000000000123b2                etimer_pending
 .far.text.etimer_next_expiration_time
                0x00000000000123be       0x16 contiki-wismote.a(etimer.o)
                0x00000000000123be                etimer_next_expiration_time
 .far.text.etimer_stop
                0x00000000000123d4       0x3e contiki-wismote.a(etimer.o)
                0x00000000000123d4                etimer_stop
 .far.text.start_pool
                0x0000000000012412       0x2e contiki-wismote.a(instance_pool.o)
                0x0000000000012412                start_pool
 .far.text.keep_client
                0x0000000000012440       0x3c contiki-wismote.a(instance_pool.o)
                0x0000000000012440                keep_client
 .far.text.keep_sink
                0x000000000001247c       0x42 contiki-wismote.a(instance_pool.o)
                0x000000000001247c                keep_sink
 .far.text.get_instance_status
                0x00000000000124be       0x50 contiki-wismote.a(instance_pool.o)
                0x00000000000124be                get_instance_status
 .far.text.change_server_dao
                0x000000000001250e       0x28 contiki-wismote.a(instance_pool.o)
                0x000000000001250e                change_server_dao
 .far.text.update_status_dao
                0x0000000000012536       0x40 contiki-wismote.a(instance_pool.o)
                0x0000000000012536                update_status_dao
 .far.text.get_dao_relogio
                0x0000000000012576       0x30 contiki-wismote.a(instance_pool.o)
                0x0000000000012576                get_dao_relogio
 .far.text.call_process
                0x00000000000125a6       0x40 contiki-wismote.a(process.o)
 .far.text.exit_process
                0x00000000000125e6       0x88 contiki-wismote.a(process.o)
 .far.text.do_poll
                0x000000000001266e       0x30 contiki-wismote.a(process.o)
 .far.text.process_alloc_event
                0x000000000001269e        0xe contiki-wismote.a(process.o)
                0x000000000001269e                process_alloc_event
 .far.text.process_init
                0x00000000000126ac       0x1c contiki-wismote.a(process.o)
                0x00000000000126ac                process_init
 .far.text.process_run
                0x00000000000126c8       0x8c contiki-wismote.a(process.o)
                0x00000000000126c8                process_run
 .far.text.process_nevents
                0x0000000000012754        0xe contiki-wismote.a(process.o)
                0x0000000000012754                process_nevents
 .far.text.process_post
                0x0000000000012762       0x4a contiki-wismote.a(process.o)
                0x0000000000012762                process_post
 .far.text.process_post_synch
                0x00000000000127ac       0x12 contiki-wismote.a(process.o)
                0x00000000000127ac                process_post_synch
 .far.text.process_start
                0x00000000000127be       0x36 contiki-wismote.a(process.o)
                0x00000000000127be                process_start
 .far.text.process_poll
                0x00000000000127f4       0x18 contiki-wismote.a(process.o)
                0x00000000000127f4                process_poll
 .far.text.rtimer_init
                0x000000000001280c        0x6 contiki-wismote.a(rtimer.o)
                0x000000000001280c                rtimer_init
 .far.text.rtimer_set
                0x0000000000012812       0x24 contiki-wismote.a(rtimer.o)
                0x0000000000012812                rtimer_set
 .far.text.rtimer_run_next
                0x0000000000012836       0x26 contiki-wismote.a(rtimer.o)
                0x0000000000012836                rtimer_run_next
 .far.text.timer_set
                0x000000000001285c       0x1c contiki-wismote.a(timer.o)
                0x000000000001285c                timer_set
 .far.text.timer_reset
                0x0000000000012878        0xe contiki-wismote.a(timer.o)
                0x0000000000012878                timer_reset
 .far.text.timer_restart
                0x0000000000012886       0x14 contiki-wismote.a(timer.o)
                0x0000000000012886                timer_restart
 .far.text.timer_expired
                0x000000000001289a       0x2a contiki-wismote.a(timer.o)
                0x000000000001289a                timer_expired
 .far.text.list_init
                0x00000000000128c4        0x6 contiki-wismote.a(list.o)
                0x00000000000128c4                list_init
 .far.text.list_head
                0x00000000000128ca        0x4 contiki-wismote.a(list.o)
                0x00000000000128ca                list_head
 .far.text.list_tail
                0x00000000000128ce       0x12 contiki-wismote.a(list.o)
                0x00000000000128ce                list_tail
 .far.text.list_remove
                0x00000000000128e0       0x34 contiki-wismote.a(list.o)
                0x00000000000128e0                list_remove
 .far.text.list_push
                0x0000000000012914       0x16 contiki-wismote.a(list.o)
                0x0000000000012914                list_push
 .far.text.list_add
                0x000000000001292a       0x26 contiki-wismote.a(list.o)
                0x000000000001292a                list_add
 .far.text.list_length
                0x0000000000012950       0x10 contiki-wismote.a(list.o)
                0x0000000000012950                list_length
 .far.text.list_item_next
                0x0000000000012960        0xc contiki-wismote.a(list.o)
                0x0000000000012960                list_item_next
 .far.text.random_init
                0x000000000001296c        0x6 contiki-wismote.a(random.o)
                0x000000000001296c                random_init
 .far.text.random_rand
                0x0000000000012972        0x6 contiki-wismote.a(random.o)
                0x0000000000012972                random_rand
 .far.text.clear_fragments
                0x0000000000012978       0x38 contiki-wismote.a(sicslowpan.o)
 .far.text.set_packet_attrs
                0x00000000000129b0       0x46 contiki-wismote.a(sicslowpan.o)
 .far.text.addr_context_lookup_by_number
                0x00000000000129f6       0x30 contiki-wismote.a(sicslowpan.o)
 .far.text.compress_addr_64
                0x0000000000012a26       0x9a contiki-wismote.a(sicslowpan.o)
 .far.text.store_fragment
                0x0000000000012ac0       0x6e contiki-wismote.a(sicslowpan.o)
 .far.text.uncompress_addr
                0x0000000000012b2e       0x96 contiki-wismote.a(sicslowpan.o)
 .far.text.sicslowpan_init
                0x0000000000012bc4       0x24 contiki-wismote.a(sicslowpan.o)
                0x0000000000012bc4                sicslowpan_init
 .far.text.addr_context_lookup_by_prefix
                0x0000000000012be8       0x4a contiki-wismote.a(sicslowpan.o)
 .far.text.packet_sent
                0x0000000000012c32       0x22 contiki-wismote.a(sicslowpan.o)
 .far.text.add_fragment
                0x0000000000012c54      0x160 contiki-wismote.a(sicslowpan.o)
 .far.text.input
                0x0000000000012db4      0x60e contiki-wismote.a(sicslowpan.o)
 .far.text.send_packet
                0x00000000000133c2       0x1a contiki-wismote.a(sicslowpan.o)
 .far.text.output
                0x00000000000133dc      0x67c contiki-wismote.a(sicslowpan.o)
 .far.text.chksum
                0x0000000000013a58       0x32 contiki-wismote.a(uip6.o)
 .far.text.upper_layer_chksum
                0x0000000000013a8a       0x56 contiki-wismote.a(uip6.o)
 .far.text.ext_hdr_options_process
                0x0000000000013ae0       0xc2 contiki-wismote.a(uip6.o)
 .far.text.uip_add32
                0x0000000000013ba2       0x60 contiki-wismote.a(uip6.o)
                0x0000000000013ba2                uip_add32
 .far.text.uip_add_rcv_nxt
                0x0000000000013c02       0x2e contiki-wismote.a(uip6.o)
 .far.text.uip_icmp6chksum
                0x0000000000013c30        0xa contiki-wismote.a(uip6.o)
                0x0000000000013c30                uip_icmp6chksum
 .far.text.uip_tcpchksum
                0x0000000000013c3a        0xa contiki-wismote.a(uip6.o)
                0x0000000000013c3a                uip_tcpchksum
 .far.text.uip_udpchksum
                0x0000000000013c44        0xa contiki-wismote.a(uip6.o)
                0x0000000000013c44                uip_udpchksum
 .far.text.uip_init
                0x0000000000013c4e       0x56 contiki-wismote.a(uip6.o)
                0x0000000000013c4e                uip_init
 .far.text.remove_ext_hdr
                0x0000000000013ca4       0x50 contiki-wismote.a(uip6.o)
                0x0000000000013ca4                remove_ext_hdr
 .far.text.uip_udp_new
                0x0000000000013cf4       0x9c contiki-wismote.a(uip6.o)
                0x0000000000013cf4                uip_udp_new
 .far.text.uip_unlisten
                0x0000000000013d90       0x1a contiki-wismote.a(uip6.o)
                0x0000000000013d90                uip_unlisten
 .far.text.uip_process
                0x0000000000013daa      0xda6 contiki-wismote.a(uip6.o)
                0x0000000000013daa                uip_process
 .far.text.uip_htonl
                0x0000000000014b50       0x2a contiki-wismote.a(uip6.o)
                0x0000000000014b50                uip_htonl
 .far.text.uip_ds6_list_loop
                0x0000000000014b7a       0x66 contiki-wismote.a(uip-ds6.o)
                0x0000000000014b7a                uip_ds6_list_loop
 .far.text.uip_ds6_prefix_add
                0x0000000000014be0       0x70 contiki-wismote.a(uip-ds6.o)
                0x0000000000014be0                uip_ds6_prefix_add
 .far.text.uip_ds6_is_addr_onlink
                0x0000000000014c50       0x42 contiki-wismote.a(uip-ds6.o)
                0x0000000000014c50                uip_ds6_is_addr_onlink
 .far.text.uip_ds6_addr_lookup
                0x0000000000014c92       0x2a contiki-wismote.a(uip-ds6.o)
                0x0000000000014c92                uip_ds6_addr_lookup
 .far.text.uip_ds6_get_link_local
                0x0000000000014cbc       0x3e contiki-wismote.a(uip-ds6.o)
                0x0000000000014cbc                uip_ds6_get_link_local
 .far.text.uip_ds6_maddr_add
                0x0000000000014cfa       0x48 contiki-wismote.a(uip-ds6.o)
                0x0000000000014cfa                uip_ds6_maddr_add
 .far.text.uip_ds6_addr_add
                0x0000000000014d42       0xb4 contiki-wismote.a(uip-ds6.o)
                0x0000000000014d42                uip_ds6_addr_add
 .far.text.uip_ds6_maddr_rm
                0x0000000000014df6        0xa contiki-wismote.a(uip-ds6.o)
                0x0000000000014df6                uip_ds6_maddr_rm
 .far.text.uip_ds6_maddr_lookup
                0x0000000000014e00       0x2a contiki-wismote.a(uip-ds6.o)
                0x0000000000014e00                uip_ds6_maddr_lookup
 .far.text.uip_ds6_addr_rm
                0x0000000000014e2a       0x54 contiki-wismote.a(uip-ds6.o)
                0x0000000000014e2a                uip_ds6_addr_rm
 .far.text.uip_ds6_periodic
                0x0000000000014e7e       0x46 contiki-wismote.a(uip-ds6.o)
                0x0000000000014e7e                uip_ds6_periodic
 .far.text.uip_ds6_set_addr_iid
                0x0000000000014ec4       0x14 contiki-wismote.a(uip-ds6.o)
                0x0000000000014ec4                uip_ds6_set_addr_iid
 .far.text.get_match_length
                0x0000000000014ed8       0x3c contiki-wismote.a(uip-ds6.o)
                0x0000000000014ed8                get_match_length
 .far.text.uip_ds6_select_src
                0x0000000000014f14       0x9a contiki-wismote.a(uip-ds6.o)
                0x0000000000014f14                uip_ds6_select_src
 .far.text.uip_ds6_compute_reachable_time
                0x0000000000014fae       0x36 contiki-wismote.a(uip-ds6.o)
                0x0000000000014fae                uip_ds6_compute_reachable_time
 .far.text.uip_ds6_init
                0x0000000000014fe4      0x138 contiki-wismote.a(uip-ds6.o)
                0x0000000000014fe4                uip_ds6_init
 .far.text.uip_ds6_nbr_rm
                0x000000000001511c       0x1e contiki-wismote.a(uip-ds6-nbr.o)
                0x000000000001511c                uip_ds6_nbr_rm
 .far.text.uip_ds6_neighbors_init
                0x000000000001513a       0x12 contiki-wismote.a(uip-ds6-nbr.o)
                0x000000000001513a                uip_ds6_neighbors_init
 .far.text.uip_ds6_nbr_add
                0x000000000001514c       0x36 contiki-wismote.a(uip-ds6-nbr.o)
                0x000000000001514c                uip_ds6_nbr_add
 .far.text.uip_ds6_nbr_get_ll
                0x0000000000015182        0xc contiki-wismote.a(uip-ds6-nbr.o)
                0x0000000000015182                uip_ds6_nbr_get_ll
 .far.text.uip_ds6_nbr_lookup
                0x000000000001518e       0x3e contiki-wismote.a(uip-ds6-nbr.o)
                0x000000000001518e                uip_ds6_nbr_lookup
 .far.text.uip_ds6_nbr_ll_lookup
                0x00000000000151cc        0xc contiki-wismote.a(uip-ds6-nbr.o)
                0x00000000000151cc                uip_ds6_nbr_ll_lookup
 .far.text.uip_ds6_nbr_ipaddr_from_lladdr
                0x00000000000151d8        0x6 contiki-wismote.a(uip-ds6-nbr.o)
                0x00000000000151d8                uip_ds6_nbr_ipaddr_from_lladdr
 .far.text.uip_ds6_nbr_lladdr_from_ipaddr
                0x00000000000151de       0x12 contiki-wismote.a(uip-ds6-nbr.o)
                0x00000000000151de                uip_ds6_nbr_lladdr_from_ipaddr
 .far.text.uip_ds6_link_neighbor_callback
                0x00000000000151f0       0x32 contiki-wismote.a(uip-ds6-nbr.o)
                0x00000000000151f0                uip_ds6_link_neighbor_callback
 .far.text.call_route_callback
                0x0000000000015222       0x40 contiki-wismote.a(uip-ds6-route.o)
 .far.text.uip_ds6_route_init
                0x0000000000015262       0x36 contiki-wismote.a(uip-ds6-route.o)
                0x0000000000015262                uip_ds6_route_init
 .far.text.uip_ds6_route_nexthop
                0x0000000000015298       0x1a contiki-wismote.a(uip-ds6-route.o)
                0x0000000000015298                uip_ds6_route_nexthop
 .far.text.uip_ds6_route_head
                0x00000000000152b2        0xa contiki-wismote.a(uip-ds6-route.o)
                0x00000000000152b2                uip_ds6_route_head
 .far.text.uip_ds6_route_next
                0x00000000000152bc        0xe contiki-wismote.a(uip-ds6-route.o)
                0x00000000000152bc                uip_ds6_route_next
 .far.text.uip_ds6_route_is_nexthop
                0x00000000000152ca       0x22 contiki-wismote.a(uip-ds6-route.o)
                0x00000000000152ca                uip_ds6_route_is_nexthop
 .far.text.uip_ds6_route_lookup
                0x00000000000152ec       0x6e contiki-wismote.a(uip-ds6-route.o)
                0x00000000000152ec                uip_ds6_route_lookup
 .far.text.uip_ds6_route_rm
                0x000000000001535a       0xa2 contiki-wismote.a(uip-ds6-route.o)
                0x000000000001535a                uip_ds6_route_rm
 .far.text.rm_routelist
                0x00000000000153fc       0x34 contiki-wismote.a(uip-ds6-route.o)
 .far.text.rm_routelist_callback
                0x0000000000015430        0x6 contiki-wismote.a(uip-ds6-route.o)
 .far.text.uip_ds6_route_add
                0x0000000000015436       0xfc contiki-wismote.a(uip-ds6-route.o)
                0x0000000000015436                uip_ds6_route_add
 .far.text.uip_ds6_defrt_rm
                0x0000000000015532       0x44 contiki-wismote.a(uip-ds6-route.o)
                0x0000000000015532                uip_ds6_defrt_rm
 .far.text.uip_ds6_defrt_lookup
                0x0000000000015576       0x32 contiki-wismote.a(uip-ds6-route.o)
                0x0000000000015576                uip_ds6_defrt_lookup
 .far.text.uip_ds6_defrt_add
                0x00000000000155a8       0x68 contiki-wismote.a(uip-ds6-route.o)
                0x00000000000155a8                uip_ds6_defrt_add
 .far.text.uip_ds6_defrt_choose
                0x0000000000015610       0x36 contiki-wismote.a(uip-ds6-route.o)
                0x0000000000015610                uip_ds6_defrt_choose
 .far.text.uip_ds6_defrt_periodic
                0x0000000000015646       0x38 contiki-wismote.a(uip-ds6-route.o)
                0x0000000000015646                uip_ds6_defrt_periodic
 .far.text.echo_reply_input
                0x000000000001567e       0xaa contiki-wismote.a(uip-icmp6.o)
 .far.text.echo_request_input
                0x0000000000015728       0xd0 contiki-wismote.a(uip-icmp6.o)
 .far.text.uip_icmp6_input
                0x00000000000157f8       0x44 contiki-wismote.a(uip-icmp6.o)
                0x00000000000157f8                uip_icmp6_input
 .far.text.uip_icmp6_register_input_handler
                0x000000000001583c        0xc contiki-wismote.a(uip-icmp6.o)
                0x000000000001583c                uip_icmp6_register_input_handler
 .far.text.uip_icmp6_error_output
                0x0000000000015848      0x174 contiki-wismote.a(uip-icmp6.o)
                0x0000000000015848                uip_icmp6_error_output
 .far.text.uip_icmp6_send
                0x00000000000159bc       0x8a contiki-wismote.a(uip-icmp6.o)
                0x00000000000159bc                uip_icmp6_send
 .far.text.uip_icmp6_init
                0x0000000000015a46       0x12 contiki-wismote.a(uip-icmp6.o)
                0x0000000000015a46                uip_icmp6_init
 .far.text.uip_nd6_init
                0x0000000000015a58        0x2 contiki-wismote.a(uip-nd6.o)
                0x0000000000015a58                uip_nd6_init
 .far.text.start_periodic_tcp_timer
                0x0000000000015a5a       0x16 contiki-wismote.a(tcpip.o)
 .far.text.tcpip_output
                0x0000000000015a70       0x10 contiki-wismote.a(tcpip.o)
                0x0000000000015a70                tcpip_output
 .far.text.tcpip_set_outputfunc
                0x0000000000015a80        0x6 contiki-wismote.a(tcpip.o)
                0x0000000000015a80                tcpip_set_outputfunc
 .far.text.udp_new
                0x0000000000015a86       0x1a contiki-wismote.a(tcpip.o)
                0x0000000000015a86                udp_new
 .far.text.tcpip_input
                0x0000000000015aa0       0x16 contiki-wismote.a(tcpip.o)
                0x0000000000015aa0                tcpip_input
 .far.text.tcpip_ipv6_output
                0x0000000000015ab6      0x11e contiki-wismote.a(tcpip.o)
                0x0000000000015ab6                tcpip_ipv6_output
 .far.text.process_thread_tcpip_process
                0x0000000000015bd4      0x1a8 contiki-wismote.a(tcpip.o)
 .far.text.tcpip_uipcall
                0x0000000000015d7c       0x62 contiki-wismote.a(tcpip.o)
                0x0000000000015d7c                tcpip_uipcall
 .far.text.uip_debug_ipaddr_print
                0x0000000000015dde       0xbc contiki-wismote.a(uip-debug.o)
                0x0000000000015dde                uip_debug_ipaddr_print
 .far.text.rpl_get_mode
                0x0000000000015e9a        0x6 contiki-wismote.a(rpl.o)
                0x0000000000015e9a                rpl_get_mode
 .far.text.rpl_purge_routes
                0x0000000000015ea0       0x96 contiki-wismote.a(rpl.o)
                0x0000000000015ea0                rpl_purge_routes
 .far.text.rpl_remove_routes
                0x0000000000015f36       0x22 contiki-wismote.a(rpl.o)
                0x0000000000015f36                rpl_remove_routes
 .far.text.rpl_remove_routes_by_nexthop
                0x0000000000015f58       0x3e contiki-wismote.a(rpl.o)
                0x0000000000015f58                rpl_remove_routes_by_nexthop
 .far.text.rpl_add_route
                0x0000000000015f96       0x48 contiki-wismote.a(rpl.o)
                0x0000000000015f96                rpl_add_route
 .far.text.rpl_link_neighbor_callback
                0x0000000000015fde       0x5c contiki-wismote.a(rpl.o)
                0x0000000000015fde                rpl_link_neighbor_callback
 .far.text.rpl_ipv6_neighbor_callback
                0x000000000001603a       0x30 contiki-wismote.a(rpl.o)
                0x000000000001603a                rpl_ipv6_neighbor_callback
 .far.text.rpl_purge_dags
                0x000000000001606a       0x52 contiki-wismote.a(rpl.o)
                0x000000000001606a                rpl_purge_dags
 .far.text.rpl_init
                0x00000000000160bc       0x44 contiki-wismote.a(rpl.o)
                0x00000000000160bc                rpl_init
 .far.text.lollipop_greater_than
                0x0000000000016100       0x3c contiki-wismote.a(rpl-dag.o)
 .far.text.set_ip_from_prefix
                0x000000000001613c       0x30 contiki-wismote.a(rpl-dag.o)
 .far.text.check_prefix
                0x000000000001616c       0x70 contiki-wismote.a(rpl-dag.o)
 .far.text.rpl_set_preferred_parent
                0x00000000000161dc       0x34 contiki-wismote.a(rpl-dag.o)
 .far.text.rpl_dag_init
                0x0000000000016210        0x2 contiki-wismote.a(rpl-dag.o)
                0x0000000000016210                rpl_dag_init
 .far.text.rpl_get_parent_link_metric
                0x0000000000016212       0x2a contiki-wismote.a(rpl-dag.o)
                0x0000000000016212                rpl_get_parent_link_metric
 .far.text.rpl_rank_via_parent
                0x000000000001623c       0x2a contiki-wismote.a(rpl-dag.o)
                0x000000000001623c                rpl_rank_via_parent
 .far.text.rpl_get_parent_lladdr
                0x0000000000016266       0x12 contiki-wismote.a(rpl-dag.o)
                0x0000000000016266                rpl_get_parent_lladdr
 .far.text.rpl_get_parent_ipaddr
                0x0000000000016278        0xa contiki-wismote.a(rpl-dag.o)
                0x0000000000016278                rpl_get_parent_ipaddr
 .far.text.rpl_get_parent_link_stats
                0x0000000000016282        0xa contiki-wismote.a(rpl-dag.o)
                0x0000000000016282                rpl_get_parent_link_stats
 .far.text.rpl_parent_is_fresh
                0x000000000001628c        0xa contiki-wismote.a(rpl-dag.o)
                0x000000000001628c                rpl_parent_is_fresh
 .far.text.best_parent
                0x0000000000016296       0x6a contiki-wismote.a(rpl-dag.o)
 .far.text.rpl_parent_is_reachable
                0x0000000000016300       0x4a contiki-wismote.a(rpl-dag.o)
                0x0000000000016300                rpl_parent_is_reachable
 .far.text.rpl_set_prefix
                0x000000000001634a       0x74 contiki-wismote.a(rpl-dag.o)
                0x000000000001634a                rpl_set_prefix
 .far.text.rpl_set_default_route
                0x00000000000163be       0x46 contiki-wismote.a(rpl-dag.o)
                0x00000000000163be                rpl_set_default_route
 .far.text.rpl_get_default_instance
                0x0000000000016404       0x48 contiki-wismote.a(rpl-dag.o)
                0x0000000000016404                rpl_get_default_instance
 .far.text.rpl_alloc_instance
                0x000000000001644c       0x6a contiki-wismote.a(rpl-dag.o)
                0x000000000001644c                rpl_alloc_instance
 .far.text.rpl_add_parent
                0x00000000000164b6       0x50 contiki-wismote.a(rpl-dag.o)
                0x00000000000164b6                rpl_add_parent
 .far.text.rpl_find_parent_any_dag_any_instance
                0x0000000000016506       0x4e contiki-wismote.a(rpl-dag.o)
                0x0000000000016506                rpl_find_parent_any_dag_any_instance
 .far.text.rpl_get_parent
                0x0000000000016554       0x10 contiki-wismote.a(rpl-dag.o)
                0x0000000000016554                rpl_get_parent
 .far.text.rpl_find_parent
                0x0000000000016564       0x2c contiki-wismote.a(rpl-dag.o)
                0x0000000000016564                rpl_find_parent
 .far.text.rpl_find_parent_any_dag
                0x0000000000016590       0x26 contiki-wismote.a(rpl-dag.o)
                0x0000000000016590                rpl_find_parent_any_dag
 .far.text.rpl_select_parent
                0x00000000000165b6       0x62 contiki-wismote.a(rpl-dag.o)
                0x00000000000165b6                rpl_select_parent
 .far.text.rpl_select_dag
                0x0000000000016618      0x192 contiki-wismote.a(rpl-dag.o)
                0x0000000000016618                rpl_select_dag
 .far.text.rpl_nullify_parent
                0x00000000000167aa       0x5c contiki-wismote.a(rpl-dag.o)
                0x00000000000167aa                rpl_nullify_parent
 .far.text.rpl_remove_parent
                0x0000000000016806       0x1c contiki-wismote.a(rpl-dag.o)
                0x0000000000016806                rpl_remove_parent
 .far.text.nbr_callback
                0x0000000000016822        0x6 contiki-wismote.a(rpl-dag.o)
 .far.text.remove_parents.constprop.4
                0x0000000000016828       0x34 contiki-wismote.a(rpl-dag.o)
 .far.text.rpl_free_dag
                0x000000000001685c       0x42 contiki-wismote.a(rpl-dag.o)
                0x000000000001685c                rpl_free_dag
 .far.text.rpl_move_parent
                0x000000000001689e       0x60 contiki-wismote.a(rpl-dag.o)
                0x000000000001689e                rpl_move_parent
 .far.text.rpl_get_any_dag
                0x00000000000168fe       0x22 contiki-wismote.a(rpl-dag.o)
                0x00000000000168fe                rpl_get_any_dag
 .far.text.rpl_get_instance
                0x0000000000016920       0x36 contiki-wismote.a(rpl-dag.o)
                0x0000000000016920                rpl_get_instance
 .far.text.rpl_alloc_dag
                0x0000000000016956       0x60 contiki-wismote.a(rpl-dag.o)
                0x0000000000016956                rpl_alloc_dag
 .far.text.rpl_repair_root
                0x00000000000169b6       0x4c contiki-wismote.a(rpl-dag.o)
                0x00000000000169b6                rpl_repair_root
 .far.text.rpl_find_of
                0x0000000000016a02       0x1c contiki-wismote.a(rpl-dag.o)
                0x0000000000016a02                rpl_find_of
 .far.text.rpl_join_instance
                0x0000000000016a1e      0x132 contiki-wismote.a(rpl-dag.o)
                0x0000000000016a1e                rpl_join_instance
 .far.text.rpl_local_repair
                0x0000000000016b50       0x6c contiki-wismote.a(rpl-dag.o)
                0x0000000000016b50                rpl_local_repair
 .far.text.rpl_process_parent_event
                0x0000000000016bbc       0xa8 contiki-wismote.a(rpl-dag.o)
                0x0000000000016bbc                rpl_process_parent_event
 .far.text.rpl_recalculate_ranks
                0x0000000000016c64       0x56 contiki-wismote.a(rpl-dag.o)
                0x0000000000016c64                rpl_recalculate_ranks
 .far.text.rpl_find_metric
                0x0000000000016cba       0x16 contiki-wismote.a(rpl-dag.o)
                0x0000000000016cba                rpl_find_metric
 .far.text.rpl_filter_dio
                0x0000000000016cd0      0x112 contiki-wismote.a(rpl-dag.o)
                0x0000000000016cd0                rpl_filter_dio
 .far.text.rpl_process_dio
                0x0000000000016de2      0x314 contiki-wismote.a(rpl-dag.o)
                0x0000000000016de2                rpl_process_dio
 .far.text.rpl_find_metric_any_routing_type
                0x00000000000170f6       0x16 contiki-wismote.a(rpl-dag.o)
                0x00000000000170f6                rpl_find_metric_any_routing_type
 .far.text.rpl_alloc_metric
                0x000000000001710c        0xa contiki-wismote.a(rpl-dag.o)
                0x000000000001710c                rpl_alloc_metric
 .far.text.rpl_remove_metric
                0x0000000000017116        0xa contiki-wismote.a(rpl-dag.o)
                0x0000000000017116                rpl_remove_metric
 .far.text.rpl_set_of
                0x0000000000017120       0x26 contiki-wismote.a(rpl-dag.o)
                0x0000000000017120                rpl_set_of
 .far.text.rpl_set_root
                0x0000000000017146      0x11a contiki-wismote.a(rpl-dag.o)
                0x0000000000017146                rpl_set_root
 .far.text.insert_hbh_header
                0x0000000000017260       0x86 contiki-wismote.a(rpl-ext-header.)
 .far.text.rpl_verify_hbh_header
                0x00000000000172e6      0x102 contiki-wismote.a(rpl-ext-header.)
                0x00000000000172e6                rpl_verify_hbh_header
 .far.text.rpl_finalize_header
                0x00000000000173e8       0xa2 contiki-wismote.a(rpl-ext-header.)
                0x00000000000173e8                rpl_finalize_header
 .far.text.rpl_remove_header
                0x000000000001748a       0xb6 contiki-wismote.a(rpl-ext-header.)
                0x000000000001748a                rpl_remove_header
 .far.text.rpl_insert_header
                0x0000000000017540       0x3c contiki-wismote.a(rpl-ext-header.)
                0x0000000000017540                rpl_insert_header
 .far.text.rpl_update_header
                0x000000000001757c      0x104 contiki-wismote.a(rpl-ext-header.)
                0x000000000001757c                rpl_update_header
 .far.text.rpl_hbh_get_instance
                0x0000000000017680        0xe contiki-wismote.a(rpl-ext-header.)
                0x0000000000017680                rpl_hbh_get_instance
 .far.text.rpl_hbh_set_instance
                0x000000000001768e        0xc contiki-wismote.a(rpl-ext-header.)
                0x000000000001768e                rpl_hbh_set_instance
 .far.text.get32
                0x000000000001769a       0x3e contiki-wismote.a(rpl-icmp6.o)
 .far.text.set32
                0x00000000000176d8       0x2a contiki-wismote.a(rpl-icmp6.o)
 .far.text.get16
                0x0000000000017702        0xe contiki-wismote.a(rpl-icmp6.o)
 .far.text.set16
                0x0000000000017710       0x10 contiki-wismote.a(rpl-icmp6.o)
 .far.text.dao_ack_input
                0x0000000000017720        0xa contiki-wismote.a(rpl-icmp6.o)
 .far.text.dio_input
                0x000000000001772a      0x46a contiki-wismote.a(rpl-icmp6.o)
 .far.text.rpl_icmp6_update_nbr_table
                0x0000000000017b94       0x5c contiki-wismote.a(rpl-icmp6.o)
                0x0000000000017b94                rpl_icmp6_update_nbr_table
 .far.text.dao_input
                0x0000000000017bf0      0x4bc contiki-wismote.a(rpl-icmp6.o)
 .far.text.dis_output
                0x00000000000180ac       0x70 contiki-wismote.a(rpl-icmp6.o)
                0x00000000000180ac                dis_output
 .far.text.dio_output
                0x000000000001811c      0x2fe contiki-wismote.a(rpl-icmp6.o)
                0x000000000001811c                dio_output
 .far.text.dis_input
                0x000000000001841a       0xa4 contiki-wismote.a(rpl-icmp6.o)
 .far.text.dao_output_target
                0x00000000000184be      0x1ac contiki-wismote.a(rpl-icmp6.o)
                0x00000000000184be                dao_output_target
 .far.text.dao_output
                0x000000000001866a       0xa8 contiki-wismote.a(rpl-icmp6.o)
                0x000000000001866a                dao_output
 .far.text.rpl_icmp6_register_handlers
                0x0000000000018712       0x22 contiki-wismote.a(rpl-icmp6.o)
                0x0000000000018712                rpl_icmp6_register_handlers
 .far.text.reset
                0x0000000000018734        0x2 contiki-wismote.a(rpl-mrhof.o)
 .far.text.parent_link_metric
                0x0000000000018736       0x10 contiki-wismote.a(rpl-mrhof.o)
 .far.text.parent_has_usable_link
                0x0000000000018746       0x14 contiki-wismote.a(rpl-mrhof.o)
 .far.text.best_dag
                0x000000000001875a       0x2e contiki-wismote.a(rpl-mrhof.o)
 .far.text.parent_path_cost
                0x0000000000018788       0x8a contiki-wismote.a(rpl-mrhof.o)
 .far.text.parent_is_acceptable
                0x0000000000018812       0x2a contiki-wismote.a(rpl-mrhof.o)
 .far.text.rank_via_parent
                0x000000000001883c       0x4e contiki-wismote.a(rpl-mrhof.o)
 .far.text.best_parent
                0x000000000001888a       0x76 contiki-wismote.a(rpl-mrhof.o)
 .far.text.update_power_consumption
                0x0000000000018900       0x50 contiki-wismote.a(rpl-mrhof.o)
                0x0000000000018900                update_power_consumption
 .far.text.update_metric_container
                0x0000000000018950       0x88 contiki-wismote.a(rpl-mrhof.o)
 .far.text.reset
                0x00000000000189d8        0x2 contiki-wismote.a(rpl-of0.o)
 .far.text.update_metric_container
                0x00000000000189da       0x28 contiki-wismote.a(rpl-of0.o)
 .far.text.parent_link_metric
                0x0000000000018a02       0x10 contiki-wismote.a(rpl-of0.o)
 .far.text.parent_rank_increase
                0x0000000000018a12       0x44 contiki-wismote.a(rpl-of0.o)
 .far.text.best_dag
                0x0000000000018a56       0x2e contiki-wismote.a(rpl-of0.o)
 .far.text.parent_is_acceptable
                0x0000000000018a84       0x38 contiki-wismote.a(rpl-of0.o)
 .far.text.parent_has_usable_link
                0x0000000000018abc        0x6 contiki-wismote.a(rpl-of0.o)
 .far.text.rank_via_parent
                0x0000000000018ac2       0x36 contiki-wismote.a(rpl-of0.o)
 .far.text.parent_path_cost
                0x0000000000018af8       0x36 contiki-wismote.a(rpl-of0.o)
 .far.text.best_parent
                0x0000000000018b2e       0x76 contiki-wismote.a(rpl-of0.o)
 .far.text.handle_unicast_dio_timer
                0x0000000000018ba4       0x1c contiki-wismote.a(rpl-timers.o)
 .far.text.new_dio_interval
                0x0000000000018bc0       0x9e contiki-wismote.a(rpl-timers.o)
 .far.text.set_dao_lifetime_timer
                0x0000000000018c5e       0x84 contiki-wismote.a(rpl-timers.o)
 .far.text.handle_periodic_timer
                0x0000000000018ce2       0x50 contiki-wismote.a(rpl-timers.o)
 .far.text.schedule_dao
                0x0000000000018d32       0x72 contiki-wismote.a(rpl-timers.o)
 .far.text.handle_dio_timer
                0x0000000000018da4       0x88 contiki-wismote.a(rpl-timers.o)
 .far.text.handle_dao_timer
                0x0000000000018e2c       0x64 contiki-wismote.a(rpl-timers.o)
 .far.text.rpl_reset_periodic_timer
                0x0000000000018e90       0x46 contiki-wismote.a(rpl-timers.o)
                0x0000000000018e90                rpl_reset_periodic_timer
 .far.text.rpl_reset_dio_timer
                0x0000000000018ed6       0x18 contiki-wismote.a(rpl-timers.o)
                0x0000000000018ed6                rpl_reset_dio_timer
 .far.text.rpl_schedule_dao
                0x0000000000018eee        0xc contiki-wismote.a(rpl-timers.o)
                0x0000000000018eee                rpl_schedule_dao
 .far.text.rpl_schedule_unicast_dio_immediately
                0x0000000000018efa       0x16 contiki-wismote.a(rpl-timers.o)
                0x0000000000018efa                rpl_schedule_unicast_dio_immediately
 .far.text.get_probing_delay
                0x0000000000018f10       0x88 contiki-wismote.a(rpl-timers.o)
                0x0000000000018f10                get_probing_delay
 .far.text.get_probing_target
                0x0000000000018f98       0xf2 contiki-wismote.a(rpl-timers.o)
                0x0000000000018f98                get_probing_target
 .far.text.rpl_schedule_probing
                0x000000000001908a       0x26 contiki-wismote.a(rpl-timers.o)
                0x000000000001908a                rpl_schedule_probing
 .far.text.handle_probing_timer
                0x00000000000190b0       0x34 contiki-wismote.a(rpl-timers.o)
 .far.text.linkaddr_copy
                0x00000000000190e4        0x8 contiki-wismote.a(linkaddr.o)
                0x00000000000190e4                linkaddr_copy
 .far.text.linkaddr_cmp
                0x00000000000190ec       0x12 contiki-wismote.a(linkaddr.o)
                0x00000000000190ec                linkaddr_cmp
 .far.text.linkaddr_set_node_addr
                0x00000000000190fe        0xc contiki-wismote.a(linkaddr.o)
                0x00000000000190fe                linkaddr_set_node_addr
 .far.text.periodic
                0x000000000001910a       0x2c contiki-wismote.a(link-stats.o)
 .far.text.link_stats_from_lladdr
                0x0000000000019136        0xc contiki-wismote.a(link-stats.o)
                0x0000000000019136                link_stats_from_lladdr
 .far.text.link_stats_is_fresh
                0x0000000000019142       0x32 contiki-wismote.a(link-stats.o)
                0x0000000000019142                link_stats_is_fresh
 .far.text.link_stats_packet_sent
                0x0000000000019174       0xde contiki-wismote.a(link-stats.o)
                0x0000000000019174                link_stats_packet_sent
 .far.text.link_stats_input_callback
                0x0000000000019252       0x84 contiki-wismote.a(link-stats.o)
                0x0000000000019252                link_stats_input_callback
 .far.text.link_stats_init
                0x00000000000192d6       0x22 contiki-wismote.a(link-stats.o)
                0x00000000000192d6                link_stats_init
 .far.text.key_from_index
                0x00000000000192f8       0x18 contiki-wismote.a(nbr-table.o)
 .far.text.item_from_index
                0x0000000000019310       0x2a contiki-wismote.a(nbr-table.o)
 .far.text.index_from_key
                0x000000000001933a       0x26 contiki-wismote.a(nbr-table.o)
 .far.text.index_from_item
                0x0000000000019360       0x1e contiki-wismote.a(nbr-table.o)
 .far.text.nbr_set_bit
                0x000000000001937e       0x50 contiki-wismote.a(nbr-table.o)
 .far.text.index_from_lladdr
                0x00000000000193ce       0x3e contiki-wismote.a(nbr-table.o)
 .far.text.nbr_get_bit.constprop.0
                0x000000000001940c       0x2c contiki-wismote.a(nbr-table.o)
 .far.text.remove_key
                0x0000000000019438       0x56 contiki-wismote.a(nbr-table.o)
 .far.text.nbr_table_register
                0x000000000001948e       0x26 contiki-wismote.a(nbr-table.o)
                0x000000000001948e                nbr_table_register
 .far.text.nbr_table_next
                0x00000000000194b4       0x3a contiki-wismote.a(nbr-table.o)
                0x00000000000194b4                nbr_table_next
 .far.text.nbr_table_head
                0x00000000000194ee       0x36 contiki-wismote.a(nbr-table.o)
                0x00000000000194ee                nbr_table_head
 .far.text.nbr_table_add_lladdr
                0x0000000000019524       0xfc contiki-wismote.a(nbr-table.o)
                0x0000000000019524                nbr_table_add_lladdr
 .far.text.nbr_table_get_from_lladdr
                0x0000000000019620       0x28 contiki-wismote.a(nbr-table.o)
                0x0000000000019620                nbr_table_get_from_lladdr
 .far.text.nbr_table_remove
                0x0000000000019648       0x2a contiki-wismote.a(nbr-table.o)
                0x0000000000019648                nbr_table_remove
 .far.text.nbr_table_lock
                0x0000000000019672       0x10 contiki-wismote.a(nbr-table.o)
                0x0000000000019672                nbr_table_lock
 .far.text.nbr_table_unlock
                0x0000000000019682       0x10 contiki-wismote.a(nbr-table.o)
                0x0000000000019682                nbr_table_unlock
 .far.text.nbr_table_get_lladdr
                0x0000000000019692       0x14 contiki-wismote.a(nbr-table.o)
                0x0000000000019692                nbr_table_get_lladdr
 .far.text.net_debug_lladdr_print
                0x00000000000196a6       0x3c contiki-wismote.a(net-debug.o)
                0x00000000000196a6                net_debug_lladdr_print
 .far.text.packetbuf_hdrreduce
                0x00000000000196e2       0x1a contiki-wismote.a(packetbuf.o)
                0x00000000000196e2                packetbuf_hdrreduce
 .far.text.packetbuf_set_datalen
                0x00000000000196fc        0x6 contiki-wismote.a(packetbuf.o)
                0x00000000000196fc                packetbuf_set_datalen
 .far.text.packetbuf_hdrptr
                0x0000000000019702        0x6 contiki-wismote.a(packetbuf.o)
                0x0000000000019702                packetbuf_hdrptr
 .far.text.packetbuf_datalen
                0x0000000000019708        0x6 contiki-wismote.a(packetbuf.o)
                0x0000000000019708                packetbuf_datalen
 .far.text.packetbuf_hdrlen
                0x000000000001970e        0xa contiki-wismote.a(packetbuf.o)
                0x000000000001970e                packetbuf_hdrlen
 .far.text.packetbuf_dataptr
                0x0000000000019718        0xc contiki-wismote.a(packetbuf.o)
                0x0000000000019718                packetbuf_dataptr
 .far.text.packetbuf_copyto
                0x0000000000019724       0x3a contiki-wismote.a(packetbuf.o)
                0x0000000000019724                packetbuf_copyto
 .far.text.packetbuf_totlen
                0x000000000001975e        0xc contiki-wismote.a(packetbuf.o)
                0x000000000001975e                packetbuf_totlen
 .far.text.packetbuf_hdralloc
                0x000000000001976a       0x3c contiki-wismote.a(packetbuf.o)
                0x000000000001976a                packetbuf_hdralloc
 .far.text.packetbuf_attr_clear
                0x00000000000197a6       0x28 contiki-wismote.a(packetbuf.o)
                0x00000000000197a6                packetbuf_attr_clear
 .far.text.packetbuf_clear
                0x00000000000197ce       0x12 contiki-wismote.a(packetbuf.o)
                0x00000000000197ce                packetbuf_clear
 .far.text.packetbuf_copyfrom
                0x00000000000197e0       0x2a contiki-wismote.a(packetbuf.o)
                0x00000000000197e0                packetbuf_copyfrom
 .far.text.packetbuf_attr_copyto
                0x000000000001980a       0x22 contiki-wismote.a(packetbuf.o)
                0x000000000001980a                packetbuf_attr_copyto
 .far.text.packetbuf_attr_copyfrom
                0x000000000001982c       0x24 contiki-wismote.a(packetbuf.o)
                0x000000000001982c                packetbuf_attr_copyfrom
 .far.text.packetbuf_holds_broadcast
                0x0000000000019850        0xe contiki-wismote.a(packetbuf.o)
                0x0000000000019850                packetbuf_holds_broadcast
 .far.text.queuebuf_init
                0x000000000001985e       0x12 contiki-wismote.a(queuebuf.o)
                0x000000000001985e                queuebuf_init
 .far.text.queuebuf_numfree
                0x0000000000019870        0xa contiki-wismote.a(queuebuf.o)
                0x0000000000019870                queuebuf_numfree
 .far.text.queuebuf_new_from_packetbuf
                0x000000000001987a       0x4e contiki-wismote.a(queuebuf.o)
                0x000000000001987a                queuebuf_new_from_packetbuf
 .far.text.queuebuf_update_attr_from_packetbuf
                0x00000000000198c8       0x12 contiki-wismote.a(queuebuf.o)
                0x00000000000198c8                queuebuf_update_attr_from_packetbuf
 .far.text.queuebuf_update_from_packetbuf
                0x00000000000198da       0x22 contiki-wismote.a(queuebuf.o)
                0x00000000000198da                queuebuf_update_from_packetbuf
 .far.text.queuebuf_free
                0x00000000000198fc       0x2a contiki-wismote.a(queuebuf.o)
                0x00000000000198fc                queuebuf_free
 .far.text.queuebuf_to_packetbuf
                0x0000000000019926       0x32 contiki-wismote.a(queuebuf.o)
                0x0000000000019926                queuebuf_to_packetbuf
 .far.text.queuebuf_attr
                0x0000000000019958        0xe contiki-wismote.a(queuebuf.o)
                0x0000000000019958                queuebuf_attr
 .far.text.input_packet
                0x0000000000019966        0x6 contiki-wismote.a(csma.o)
 .far.text.on   0x000000000001996c        0x6 contiki-wismote.a(csma.o)
 .far.text.off  0x0000000000019972        0x6 contiki-wismote.a(csma.o)
 .far.text.channel_check_interval
                0x0000000000019978       0x10 contiki-wismote.a(csma.o)
 .far.text.transmit_packet_list
                0x0000000000019988       0x24 contiki-wismote.a(csma.o)
 .far.text.schedule_transmission
                0x00000000000199ac       0x94 contiki-wismote.a(csma.o)
 .far.text.init
                0x0000000000019a40       0x1a contiki-wismote.a(csma.o)
 .far.text.tx_done
                0x0000000000019a5a       0x84 contiki-wismote.a(csma.o)
 .far.text.send_packet
                0x0000000000019ade      0x158 contiki-wismote.a(csma.o)
 .far.text.packet_sent
                0x0000000000019c36       0xca contiki-wismote.a(csma.o)
 .far.text.create_frame.isra.0
                0x0000000000019d00      0x114 contiki-wismote.a(framer-802154.o)
 .far.text.create
                0x0000000000019e14        0x8 contiki-wismote.a(framer-802154.o)
 .far.text.hdr_length
                0x0000000000019e1c        0x8 contiki-wismote.a(framer-802154.o)
 .far.text.parse
                0x0000000000019e24       0x9a contiki-wismote.a(framer-802154.o)
 .far.text.mac_call_sent_callback
                0x0000000000019ebe       0x14 contiki-wismote.a(mac.o)
                0x0000000000019ebe                mac_call_sent_callback
 .far.text.duty_cycle
                0x0000000000019ed2        0x6 contiki-wismote.a(contikimac.o)
 .far.text.init
                0x0000000000019ed8       0x2a contiki-wismote.a(contikimac.o)
 .far.text.on   0x0000000000019f02       0x1a contiki-wismote.a(contikimac.o)
 .far.text.off  0x0000000000019f1c       0x22 contiki-wismote.a(contikimac.o)
 .far.text.recv_burst_off
                0x0000000000019f3e        0xa contiki-wismote.a(contikimac.o)
 .far.text.powercycle_turn_radio_off
                0x0000000000019f48       0x14 contiki-wismote.a(contikimac.o)
 .far.text.turn_off
                0x0000000000019f5c       0x20 contiki-wismote.a(contikimac.o)
 .far.text.turn_on
                0x0000000000019f7c       0x30 contiki-wismote.a(contikimac.o)
 .far.text.schedule_powercycle_fixed.part.5
                0x0000000000019fac       0x32 contiki-wismote.a(contikimac.o)
 .far.text.input_packet
                0x0000000000019fde       0x94 contiki-wismote.a(contikimac.o)
 .far.text.send_packet.isra.8
                0x000000000001a072      0x1d8 contiki-wismote.a(contikimac.o)
 .far.text.qsend_list
                0x000000000001a24a       0xb2 contiki-wismote.a(contikimac.o)
 .far.text.qsend_packet
                0x000000000001a2fc       0x28 contiki-wismote.a(contikimac.o)
 .far.text.powercycle_wrapper
                0x000000000001a324      0x1c6 contiki-wismote.a(contikimac.o)
 .far.text.init
                0x000000000001a4ea        0x2 contiki-wismote.a(nullsec.o)
 .far.text.send
                0x000000000001a4ec        0xa contiki-wismote.a(nullsec.o)
 .far.text.input
                0x000000000001a4f6        0x6 contiki-wismote.a(nullsec.o)
 .far.text.spi_init
                0x000000000001a4fc       0x32 contiki-wismote.a(spi.o)
                0x000000000001a4fc                spi_init
 .far.text.stimer_set
                0x000000000001a52e       0x1c contiki-wismote.a(stimer.o)
                0x000000000001a52e                stimer_set
 .far.text.stimer_expired
                0x000000000001a54a       0x30 contiki-wismote.a(stimer.o)
                0x000000000001a54a                stimer_expired
 .far.text.memb_init
                0x000000000001a57a       0x36 contiki-wismote.a(memb.o)
                0x000000000001a57a                memb_init
 .far.text.memb_alloc
                0x000000000001a5b0       0x3e contiki-wismote.a(memb.o)
                0x000000000001a5b0                memb_alloc
 .far.text.memb_free
                0x000000000001a5ee       0x3a contiki-wismote.a(memb.o)
                0x000000000001a5ee                memb_free
 .far.text.memb_inmemb
                0x000000000001a628       0x2a contiki-wismote.a(memb.o)
                0x000000000001a628                memb_inmemb
 .far.text.memb_numfree
                0x000000000001a652       0x26 contiki-wismote.a(memb.o)
                0x000000000001a652                memb_numfree
 .far.text.update_nbr
                0x000000000001a678       0xda contiki-wismote.a(rpl-nbr-policy.)
 .far.text.handle_periodic_timer
                0x000000000001a752        0xe contiki-wismote.a(rpl-nbr-policy.)
 .far.text.find_removable_dis
                0x000000000001a760       0x14 contiki-wismote.a(rpl-nbr-policy.)
                0x000000000001a760                find_removable_dis
 .far.text.find_removable_dio
                0x000000000001a774       0x3c contiki-wismote.a(rpl-nbr-policy.)
                0x000000000001a774                find_removable_dio
 .far.text.find_removable_dao
                0x000000000001a7b0       0x32 contiki-wismote.a(rpl-nbr-policy.)
                0x000000000001a7b0                find_removable_dao
 .far.text.rpl_nbr_policy_find_removable
                0x000000000001a7e2       0x30 contiki-wismote.a(rpl-nbr-policy.)
                0x000000000001a7e2                rpl_nbr_policy_find_removable
 .far.text.frame802154_get_pan_id
                0x000000000001a812        0x6 contiki-wismote.a(frame802154.o)
                0x000000000001a812                frame802154_get_pan_id
 .far.text.frame802154_has_panid
                0x000000000001a818       0x64 contiki-wismote.a(frame802154.o)
                0x000000000001a818                frame802154_has_panid
 .far.text.field_len
                0x000000000001a87c       0xa8 contiki-wismote.a(frame802154.o)
 .far.text.frame802154_is_broadcast_addr
                0x000000000001a924       0x28 contiki-wismote.a(frame802154.o)
                0x000000000001a924                frame802154_is_broadcast_addr
 .far.text.frame802154_hdrlen
                0x000000000001a94c       0x32 contiki-wismote.a(frame802154.o)
                0x000000000001a94c                frame802154_hdrlen
 .far.text.frame802154_create
                0x000000000001a97e      0x136 contiki-wismote.a(frame802154.o)
                0x000000000001a97e                frame802154_create
 .far.text.frame802154_parse
                0x000000000001aab4      0x1be contiki-wismote.a(frame802154.o)
                0x000000000001aab4                frame802154_parse
 .far.text.mac_sequence_is_duplicate
                0x000000000001ac72       0x3c contiki-wismote.a(mac-sequence.o)
                0x000000000001ac72                mac_sequence_is_duplicate
 .far.text.mac_sequence_register_seqno
                0x000000000001acae       0x6a contiki-wismote.a(mac-sequence.o)
                0x000000000001acae                mac_sequence_register_seqno

.far.rodata     0x000000000001ad18        0x0
                0x000000000001ad18                . = ALIGN (0x2)
 *(.far.rodata .far.rodata.*)
                0x000000000001ad18                . = ALIGN (0x2)
                0x000000000001ad18                _efartext = .

.far.data       0x0000000000000000        0x0 load address 0x000000000001ad18
                0x0000000000000000                . = ALIGN (0x2)
                0x0000000000000000                __far_data_start = .
 *(.far.data .far.data.*)
                0x0000000000000000                . = ALIGN (0x2)
                0x0000000000000000                _efardata = .
                0x000000000001ad18                __far_data_load_start = LOADADDR (.far.data)
                0x0000000000000000                __far_data_size = SIZEOF (.far.data)

.far.bss        0x0000000000000000        0x0 load address 0x000000000001ad18
                0x0000000000000000                . = ALIGN (0x2)
                0x0000000000000000                __far_bss_start = .
 *(.far.bss .far.bss.*)
                0x0000000000000000                . = ALIGN (0x2)
                0x0000000000000000                __far_bss_end = .
                0x0000000000000000                __far_bss_size = SIZEOF (.far.bss)
                0x0000000000000000                . = ALIGN (0x2)
                0x0000000000000000                _far_end = .

.profiler
 *(.profiler)

.stab           0x0000000000000000    0x2d0c0
 *(.stab)
 .stab          0x0000000000000000     0x1c74 udp-server.co
 .stab          0x0000000000001c74     0x11f4 obj_wismote/contiki-wismote-main.o
                                       0x1a28 (size before relaxing)
 .stab          0x0000000000002e68      0x24c contiki-wismote.a(contiki-wismote)
                                        0x5c4 (size before relaxing)
 .stab          0x00000000000030b4      0x474 contiki-wismote.a(button-sensor.o)
                                        0x7f8 (size before relaxing)
 .stab          0x0000000000003528      0x9d8 contiki-wismote.a(xmem.o)
                                        0xf18 (size before relaxing)
 .stab          0x0000000000003f00      0x2b8 contiki-wismote.a(node-id.o)
                                        0x4f8 (size before relaxing)
 .stab          0x00000000000041b8      0x864 contiki-wismote.a(sensors.o)
                                        0xbd0 (size before relaxing)
 .stab          0x0000000000004a1c     0x23d0 contiki-wismote.a(cc2520.o)
                                       0x2afc (size before relaxing)
 .stab          0x0000000000006dec      0x648 contiki-wismote.a(cc2520-arch.o)
                                       0x1734 (size before relaxing)
 .stab          0x0000000000007434      0x4e0 contiki-wismote.a(uart1.o)
                                        0xa14 (size before relaxing)
 .stab          0x0000000000007914      0x234 contiki-wismote.a(uart1-putchar.o)
                                        0x5a0 (size before relaxing)
 .stab          0x0000000000007b48      0x5f4 contiki-wismote.a(msp430.o)
                                        0x960 (size before relaxing)
 .stab          0x000000000000813c      0x8b8 contiki-wismote.a(clock.o)
                                        0xc24 (size before relaxing)
 .stab          0x00000000000089f4      0x5a0 contiki-wismote.a(leds.o)
                                        0x804 (size before relaxing)
 .stab          0x0000000000008f94      0x360 contiki-wismote.a(leds-arch.o)
                                        0x6cc (size before relaxing)
 .stab          0x00000000000092f4      0x3cc contiki-wismote.a(watchdog.o)
                                        0x738 (size before relaxing)
 .stab          0x00000000000096c0      0x3b4 contiki-wismote.a(rtimer-arch.o)
                                        0x720 (size before relaxing)
 .stab          0x0000000000009a74      0x294 contiki-wismote.a(autostart.o)
                                        0x54c (size before relaxing)
 .stab          0x0000000000009d08      0xe70 contiki-wismote.a(battery_kinetic)
                                       0x13c8 (size before relaxing)
 .stab          0x000000000000ab78      0x774 contiki-wismote.a(compower.o)
                                        0xd08 (size before relaxing)
 .stab          0x000000000000b2ec      0x834 contiki-wismote.a(ctimer.o)
                                        0xbb8 (size before relaxing)
 .stab          0x000000000000bb20      0x48c contiki-wismote.a(energest.o)
                                        0x72c (size before relaxing)
 .stab          0x000000000000bfac      0xa80 contiki-wismote.a(etimer.o)
                                        0xd68 (size before relaxing)
 .stab          0x000000000000ca2c      0xc00 contiki-wismote.a(instance_pool.o)
                                       0x1e30 (size before relaxing)
 .stab          0x000000000000d62c      0xb94 contiki-wismote.a(process.o)
                                       0x1044 (size before relaxing)
 .stab          0x000000000000e1c0      0x39c contiki-wismote.a(rtimer.o)
                                        0x6cc (size before relaxing)
 .stab          0x000000000000e55c      0x348 contiki-wismote.a(timer.o)
                                        0x5a0 (size before relaxing)
 .stab          0x000000000000e8a4      0x7bc contiki-wismote.a(list.o)
                                        0x7c8 (size before relaxing)
 .stab          0x000000000000f060      0x21c contiki-wismote.a(random.o)
                                        0x630 (size before relaxing)
 .stab          0x000000000000f27c     0x2b80 contiki-wismote.a(sicslowpan.o)
                                       0x3564 (size before relaxing)
 .stab          0x0000000000011dfc     0x2b08 contiki-wismote.a(uip6.o)
                                       0x375c (size before relaxing)
 .stab          0x0000000000014904     0x13d4 contiki-wismote.a(uip-ds6.o)
                                       0x201c (size before relaxing)
 .stab          0x0000000000015cd8      0xa74 contiki-wismote.a(uip-ds6-nbr.o)
                                       0x15b4 (size before relaxing)
 .stab          0x000000000001674c     0x12cc contiki-wismote.a(uip-ds6-route.o)
                                       0x1efc (size before relaxing)
 .stab          0x0000000000017a18      0xbe8 contiki-wismote.a(uip-icmp6.o)
                                       0x1920 (size before relaxing)
 .stab          0x0000000000018600      0x594 contiki-wismote.a(uip-nd6.o)
                                       0x1218 (size before relaxing)
 .stab          0x0000000000018b94     0x1284 contiki-wismote.a(tcpip.o)
                                       0x25bc (size before relaxing)
 .stab          0x0000000000019e18      0x3d8 contiki-wismote.a(uip-debug.o)
                                        0xbc4 (size before relaxing)
 .stab          0x000000000001a1f0      0xb40 contiki-wismote.a(rpl.o)
                                       0x1980 (size before relaxing)
 .stab          0x000000000001ad30     0x3948 contiki-wismote.a(rpl-dag.o)
                                       0x45fc (size before relaxing)
 .stab          0x000000000001e678      0xce4 contiki-wismote.a(rpl-ext-header.)
                                       0x1b18 (size before relaxing)
 .stab          0x000000000001f35c     0x21a8 contiki-wismote.a(rpl-icmp6.o)
                                       0x3024 (size before relaxing)
 .stab          0x0000000000021504      0xc00 contiki-wismote.a(rpl-mrhof.o)
                                       0x19f8 (size before relaxing)
 .stab          0x0000000000022104      0x9d8 contiki-wismote.a(rpl-of0.o)
                                       0x17dc (size before relaxing)
 .stab          0x0000000000022adc      0xf78 contiki-wismote.a(rpl-timers.o)
                                       0x1d70 (size before relaxing)
 .stab          0x0000000000023a54      0x2ac contiki-wismote.a(linkaddr.o)
                                        0x6c0 (size before relaxing)
 .stab          0x0000000000023d00      0x7c8 contiki-wismote.a(link-stats.o)
                                       0x11ac (size before relaxing)
 .stab          0x00000000000244c8     0x10f8 contiki-wismote.a(nbr-table.o)
                                       0x1a7c (size before relaxing)
 .stab          0x00000000000255c0      0x330 contiki-wismote.a(net-debug.o)
                                        0xb10 (size before relaxing)
 .stab          0x00000000000258f0      0xc48 contiki-wismote.a(packetbuf.o)
                                       0x1d94 (size before relaxing)
 .stab          0x0000000000026538      0xa80 contiki-wismote.a(queuebuf.o)
                                       0x1bb4 (size before relaxing)
 .stab          0x0000000000026fb8     0x111c contiki-wismote.a(csma.o)
                                       0x165c (size before relaxing)
 .stab          0x00000000000280d4      0x900 contiki-wismote.a(framer-802154.o)
                                        0xf24 (size before relaxing)
 .stab          0x00000000000289d4      0x1f8 contiki-wismote.a(mac.o)
                                        0x504 (size before relaxing)
 .stab          0x0000000000028bcc     0x1650 contiki-wismote.a(contikimac.o)
                                       0x225c (size before relaxing)
 .stab          0x000000000002a21c      0x39c contiki-wismote.a(nullsec.o)
                                        0xce4 (size before relaxing)
 .stab          0x000000000002a5b8      0x27c contiki-wismote.a(spi.o)
                                        0x5e8 (size before relaxing)
 .stab          0x000000000002a834      0x3b4 contiki-wismote.a(stimer.o)
                                        0x60c (size before relaxing)
 .stab          0x000000000002abe8      0x5c4 contiki-wismote.a(memb.o)
                                        0xb10 (size before relaxing)
 .stab          0x000000000002b1ac      0x954 contiki-wismote.a(rpl-nbr-policy.)
                                       0x1740 (size before relaxing)
 .stab          0x000000000002bb00      0xf6c contiki-wismote.a(frame802154.o)
                                       0x1770 (size before relaxing)
 .stab          0x000000000002ca6c      0x654 contiki-wismote.a(mac-sequence.o)
                                       0x17a0 (size before relaxing)

.stabstr        0x0000000000000000    0x21458
 *(.stabstr)
 .stabstr       0x0000000000000000    0x21458 udp-server.co

.stab.excl
 *(.stab.excl)

.stab.exclstr
 *(.stab.exclstr)

.stab.index
 *(.stab.index)

.stab.indexstr
 *(.stab.indexstr)

.comment        0x0000000000000000       0x30
 *(.comment)
 .comment       0x0000000000000000       0x30 udp-server.co
                                         0x31 (size before relaxing)
 .comment       0x0000000000000000       0x31 obj_wismote/contiki-wismote-main.o
 .comment       0x0000000000000000       0x31 contiki-wismote.a(contiki-wismote)
 .comment       0x0000000000000000       0x31 contiki-wismote.a(button-sensor.o)
 .comment       0x0000000000000000       0x31 contiki-wismote.a(xmem.o)
 .comment       0x0000000000000000       0x31 contiki-wismote.a(node-id.o)
 .comment       0x0000000000000000       0x31 contiki-wismote.a(sensors.o)
 .comment       0x0000000000000000       0x31 contiki-wismote.a(cc2520.o)
 .comment       0x0000000000000000       0x31 contiki-wismote.a(cc2520-arch.o)
 .comment       0x0000000000000000       0x31 contiki-wismote.a(uart1.o)
 .comment       0x0000000000000000       0x31 contiki-wismote.a(uart1-putchar.o)
 .comment       0x0000000000000000       0x31 contiki-wismote.a(msp430.o)
 .comment       0x0000000000000000       0x31 contiki-wismote.a(clock.o)
 .comment       0x0000000000000000       0x31 contiki-wismote.a(leds.o)
 .comment       0x0000000000000000       0x31 contiki-wismote.a(leds-arch.o)
 .comment       0x0000000000000000       0x31 contiki-wismote.a(watchdog.o)
 .comment       0x0000000000000000       0x31 contiki-wismote.a(rtimer-arch.o)
 .comment       0x0000000000000000       0x31 contiki-wismote.a(autostart.o)
 .comment       0x0000000000000000       0x31 contiki-wismote.a(battery_kinetic)
 .comment       0x0000000000000000       0x31 contiki-wismote.a(compower.o)
 .comment       0x0000000000000000       0x31 contiki-wismote.a(ctimer.o)
 .comment       0x0000000000000000       0x31 contiki-wismote.a(energest.o)
 .comment       0x0000000000000000       0x31 contiki-wismote.a(etimer.o)
 .comment       0x0000000000000000       0x31 contiki-wismote.a(instance_pool.o)
 .comment       0x0000000000000000       0x31 contiki-wismote.a(process.o)
 .comment       0x0000000000000000       0x31 contiki-wismote.a(rtimer.o)
 .comment       0x0000000000000000       0x31 contiki-wismote.a(timer.o)
 .comment       0x0000000000000000       0x31 contiki-wismote.a(list.o)
 .comment       0x0000000000000000       0x31 contiki-wismote.a(random.o)
 .comment       0x0000000000000000       0x31 contiki-wismote.a(sicslowpan.o)
 .comment       0x0000000000000000       0x31 contiki-wismote.a(uip6.o)
 .comment       0x0000000000000000       0x31 contiki-wismote.a(uip-ds6.o)
 .comment       0x0000000000000000       0x31 contiki-wismote.a(uip-ds6-nbr.o)
 .comment       0x0000000000000000       0x31 contiki-wismote.a(uip-ds6-route.o)
 .comment       0x0000000000000000       0x31 contiki-wismote.a(uip-icmp6.o)
 .comment       0x0000000000000000       0x31 contiki-wismote.a(uip-nd6.o)
 .comment       0x0000000000000000       0x31 contiki-wismote.a(tcpip.o)
 .comment       0x0000000000000000       0x31 contiki-wismote.a(uip-debug.o)
 .comment       0x0000000000000000       0x31 contiki-wismote.a(rpl.o)
 .comment       0x0000000000000000       0x31 contiki-wismote.a(rpl-dag.o)
 .comment       0x0000000000000000       0x31 contiki-wismote.a(rpl-ext-header.)
 .comment       0x0000000000000000       0x31 contiki-wismote.a(rpl-icmp6.o)
 .comment       0x0000000000000000       0x31 contiki-wismote.a(rpl-mrhof.o)
 .comment       0x0000000000000000       0x31 contiki-wismote.a(rpl-of0.o)
 .comment       0x0000000000000000       0x31 contiki-wismote.a(rpl-timers.o)
 .comment       0x0000000000000000       0x31 contiki-wismote.a(linkaddr.o)
 .comment       0x0000000000000000       0x31 contiki-wismote.a(link-stats.o)
 .comment       0x0000000000000000       0x31 contiki-wismote.a(nbr-table.o)
 .comment       0x0000000000000000       0x31 contiki-wismote.a(net-debug.o)
 .comment       0x0000000000000000       0x31 contiki-wismote.a(packetbuf.o)
 .comment       0x0000000000000000       0x31 contiki-wismote.a(queuebuf.o)
 .comment       0x0000000000000000       0x31 contiki-wismote.a(csma.o)
 .comment       0x0000000000000000       0x31 contiki-wismote.a(framer-802154.o)
 .comment       0x0000000000000000       0x31 contiki-wismote.a(mac.o)
 .comment       0x0000000000000000       0x31 contiki-wismote.a(contikimac.o)
 .comment       0x0000000000000000       0x31 contiki-wismote.a(nullsec.o)
 .comment       0x0000000000000000       0x31 contiki-wismote.a(spi.o)
 .comment       0x0000000000000000       0x31 contiki-wismote.a(stimer.o)
 .comment       0x0000000000000000       0x31 contiki-wismote.a(memb.o)
 .comment       0x0000000000000000       0x31 contiki-wismote.a(rpl-nbr-policy.)
 .comment       0x0000000000000000       0x31 contiki-wismote.a(frame802154.o)
 .comment       0x0000000000000000       0x31 contiki-wismote.a(mac-sequence.o)
 .comment       0x0000000000000000       0x31 /opt/compilers/mspgcc-4.7.3/bin/../lib/gcc/msp430/4.7.3/../../../../msp430/lib/mcpu-430x/mmpy-16/msr20/mc20/libm.a(ef_exp.o)
 .comment       0x0000000000000000       0x31 /opt/compilers/mspgcc-4.7.3/bin/../lib/gcc/msp430/4.7.3/mcpu-430x/mmpy-16/msr20/mc20/libgcc.a(_fixunssfsi.o)
 .comment       0x0000000000000000       0x31 /opt/compilers/mspgcc-4.7.3/bin/../lib/gcc/msp430/4.7.3/mcpu-430x/mmpy-16/msr20/mc20/libgcc.a(_addsub_sf.o)
 .comment       0x0000000000000000       0x31 /opt/compilers/mspgcc-4.7.3/bin/../lib/gcc/msp430/4.7.3/mcpu-430x/mmpy-16/msr20/mc20/libgcc.a(_mul_sf.o)
 .comment       0x0000000000000000       0x31 /opt/compilers/mspgcc-4.7.3/bin/../lib/gcc/msp430/4.7.3/mcpu-430x/mmpy-16/msr20/mc20/libgcc.a(_div_sf.o)
 .comment       0x0000000000000000       0x31 /opt/compilers/mspgcc-4.7.3/bin/../lib/gcc/msp430/4.7.3/mcpu-430x/mmpy-16/msr20/mc20/libgcc.a(_gt_sf.o)
 .comment       0x0000000000000000       0x31 /opt/compilers/mspgcc-4.7.3/bin/../lib/gcc/msp430/4.7.3/mcpu-430x/mmpy-16/msr20/mc20/libgcc.a(_ge_sf.o)
 .comment       0x0000000000000000       0x31 /opt/compilers/mspgcc-4.7.3/bin/../lib/gcc/msp430/4.7.3/mcpu-430x/mmpy-16/msr20/mc20/libgcc.a(_si_to_sf.o)
 .comment       0x0000000000000000       0x31 /opt/compilers/mspgcc-4.7.3/bin/../lib/gcc/msp430/4.7.3/mcpu-430x/mmpy-16/msr20/mc20/libgcc.a(_sf_to_si.o)
 .comment       0x0000000000000000       0x31 /opt/compilers/mspgcc-4.7.3/bin/../lib/gcc/msp430/4.7.3/mcpu-430x/mmpy-16/msr20/mc20/libgcc.a(_thenan_sf.o)
 .comment       0x0000000000000000       0x31 /opt/compilers/mspgcc-4.7.3/bin/../lib/gcc/msp430/4.7.3/mcpu-430x/mmpy-16/msr20/mc20/libgcc.a(_usi_to_sf.o)
 .comment       0x0000000000000000       0x31 /opt/compilers/mspgcc-4.7.3/bin/../lib/gcc/msp430/4.7.3/mcpu-430x/mmpy-16/msr20/mc20/libgcc.a(_clzsi2.o)
 .comment       0x0000000000000000       0x31 /opt/compilers/mspgcc-4.7.3/bin/../lib/gcc/msp430/4.7.3/mcpu-430x/mmpy-16/msr20/mc20/libgcc.a(_pack_sf.o)
 .comment       0x0000000000000000       0x31 /opt/compilers/mspgcc-4.7.3/bin/../lib/gcc/msp430/4.7.3/mcpu-430x/mmpy-16/msr20/mc20/libgcc.a(_unpack_sf.o)
 .comment       0x0000000000000000       0x31 /opt/compilers/mspgcc-4.7.3/bin/../lib/gcc/msp430/4.7.3/mcpu-430x/mmpy-16/msr20/mc20/libgcc.a(_fpcmp_parts_sf.o)
 .comment       0x0000000000000000       0x31 /opt/compilers/mspgcc-4.7.3/bin/../lib/gcc/msp430/4.7.3/mcpu-430x/mmpy-16/msr20/mc20/libgcc.a(_clz.o)
 .comment       0x0000000000000000       0x31 /opt/compilers/mspgcc-4.7.3/bin/../lib/gcc/msp430/4.7.3/../../../../msp430/lib/mcpu-430x/mmpy-16/msr20/mc20/libc.a(printf.o)
 .comment       0x0000000000000000       0x31 /opt/compilers/mspgcc-4.7.3/bin/../lib/gcc/msp430/4.7.3/../../../../msp430/lib/mcpu-430x/mmpy-16/msr20/mc20/libc.a(vuprintf.o)
 .comment       0x0000000000000000       0x31 /opt/compilers/mspgcc-4.7.3/bin/../lib/gcc/msp430/4.7.3/../../../../msp430/lib/mcpu-430x/mmpy-16/msr20/mc20/libc.a(puts.o)
 .comment       0x0000000000000000       0x31 /opt/compilers/mspgcc-4.7.3/bin/../lib/gcc/msp430/4.7.3/../../../../msp430/lib/mcpu-430x/mmpy-16/msr20/mc20/libc.a(rand.o)
 .comment       0x0000000000000000       0x31 /opt/compilers/mspgcc-4.7.3/bin/../lib/gcc/msp430/4.7.3/../../../../msp430/lib/mcpu-430x/mmpy-16/msr20/mc20/libc.a(memcmp.o)
 .comment       0x0000000000000000       0x31 /opt/compilers/mspgcc-4.7.3/bin/../lib/gcc/msp430/4.7.3/../../../../msp430/lib/mcpu-430x/mmpy-16/msr20/mc20/libc.a(memcpy.o)
 .comment       0x0000000000000000       0x31 /opt/compilers/mspgcc-4.7.3/bin/../lib/gcc/msp430/4.7.3/../../../../msp430/lib/mcpu-430x/mmpy-16/msr20/mc20/libc.a(memmove.o)
 .comment       0x0000000000000000       0x31 /opt/compilers/mspgcc-4.7.3/bin/../lib/gcc/msp430/4.7.3/../../../../msp430/lib/mcpu-430x/mmpy-16/msr20/mc20/libc.a(memset.o)

.debug
 *(.debug)

.line
 *(.line)

.debug_srcinfo
 *(.debug_srcinfo)

.debug_sfnames
 *(.debug_sfnames)

.debug_aranges  0x0000000000000000      0x4c8
 *(.debug_aranges)
 .debug_aranges
                0x0000000000000000       0x20 /opt/compilers/mspgcc-4.7.3/bin/../lib/gcc/msp430/4.7.3/mcpu-430x/mmpy-16/msr20/mc20/crt0ivtbl64.o
 .debug_aranges
                0x0000000000000020       0x28 /opt/compilers/mspgcc-4.7.3/bin/../lib/gcc/msp430/4.7.3/../../../../msp430/lib/mcpu-430x/mmpy-16/msr20/mc20/libm.a(ef_exp.o)
 .debug_aranges
                0x0000000000000048       0x20 /opt/compilers/mspgcc-4.7.3/bin/../lib/gcc/msp430/4.7.3/mcpu-430x/mmpy-16/msr20/mc20/libgcc.a(_udivmod16.o)
 .debug_aranges
                0x0000000000000068       0x20 /opt/compilers/mspgcc-4.7.3/bin/../lib/gcc/msp430/4.7.3/mcpu-430x/mmpy-16/msr20/mc20/libgcc.a(_divmod16.o)
 .debug_aranges
                0x0000000000000088       0x20 /opt/compilers/mspgcc-4.7.3/bin/../lib/gcc/msp430/4.7.3/mcpu-430x/mmpy-16/msr20/mc20/libgcc.a(_udivmod32.o)
 .debug_aranges
                0x00000000000000a8       0x20 /opt/compilers/mspgcc-4.7.3/bin/../lib/gcc/msp430/4.7.3/mcpu-430x/mmpy-16/msr20/mc20/libgcc.a(_divmod32.o)
 .debug_aranges
                0x00000000000000c8       0x20 /opt/compilers/mspgcc-4.7.3/bin/../lib/gcc/msp430/4.7.3/mcpu-430x/mmpy-16/msr20/mc20/libgcc.a(_fixunssfsi.o)
 .debug_aranges
                0x00000000000000e8       0x30 /opt/compilers/mspgcc-4.7.3/bin/../lib/gcc/msp430/4.7.3/mcpu-430x/mmpy-16/msr20/mc20/libgcc.a(_addsub_sf.o)
 .debug_aranges
                0x0000000000000118       0x20 /opt/compilers/mspgcc-4.7.3/bin/../lib/gcc/msp430/4.7.3/mcpu-430x/mmpy-16/msr20/mc20/libgcc.a(_mul_sf.o)
 .debug_aranges
                0x0000000000000138       0x20 /opt/compilers/mspgcc-4.7.3/bin/../lib/gcc/msp430/4.7.3/mcpu-430x/mmpy-16/msr20/mc20/libgcc.a(_div_sf.o)
 .debug_aranges
                0x0000000000000158       0x20 /opt/compilers/mspgcc-4.7.3/bin/../lib/gcc/msp430/4.7.3/mcpu-430x/mmpy-16/msr20/mc20/libgcc.a(_gt_sf.o)
 .debug_aranges
                0x0000000000000178       0x20 /opt/compilers/mspgcc-4.7.3/bin/../lib/gcc/msp430/4.7.3/mcpu-430x/mmpy-16/msr20/mc20/libgcc.a(_ge_sf.o)
 .debug_aranges
                0x0000000000000198       0x20 /opt/compilers/mspgcc-4.7.3/bin/../lib/gcc/msp430/4.7.3/mcpu-430x/mmpy-16/msr20/mc20/libgcc.a(_si_to_sf.o)
 .debug_aranges
                0x00000000000001b8       0x20 /opt/compilers/mspgcc-4.7.3/bin/../lib/gcc/msp430/4.7.3/mcpu-430x/mmpy-16/msr20/mc20/libgcc.a(_sf_to_si.o)
 .debug_aranges
                0x00000000000001d8       0x18 /opt/compilers/mspgcc-4.7.3/bin/../lib/gcc/msp430/4.7.3/mcpu-430x/mmpy-16/msr20/mc20/libgcc.a(_thenan_sf.o)
 .debug_aranges
                0x00000000000001f0       0x20 /opt/compilers/mspgcc-4.7.3/bin/../lib/gcc/msp430/4.7.3/mcpu-430x/mmpy-16/msr20/mc20/libgcc.a(_usi_to_sf.o)
 .debug_aranges
                0x0000000000000210       0x20 /opt/compilers/mspgcc-4.7.3/bin/../lib/gcc/msp430/4.7.3/mcpu-430x/mmpy-16/msr20/mc20/libgcc.a(_clzsi2.o)
 .debug_aranges
                0x0000000000000230       0x20 /opt/compilers/mspgcc-4.7.3/bin/../lib/gcc/msp430/4.7.3/mcpu-430x/mmpy-16/msr20/mc20/libgcc.a(_pack_sf.o)
 .debug_aranges
                0x0000000000000250       0x20 /opt/compilers/mspgcc-4.7.3/bin/../lib/gcc/msp430/4.7.3/mcpu-430x/mmpy-16/msr20/mc20/libgcc.a(_unpack_sf.o)
 .debug_aranges
                0x0000000000000270       0x20 /opt/compilers/mspgcc-4.7.3/bin/../lib/gcc/msp430/4.7.3/mcpu-430x/mmpy-16/msr20/mc20/libgcc.a(_fpcmp_parts_sf.o)
 .debug_aranges
                0x0000000000000290       0x18 /opt/compilers/mspgcc-4.7.3/bin/../lib/gcc/msp430/4.7.3/mcpu-430x/mmpy-16/msr20/mc20/libgcc.a(_clz.o)
 .debug_aranges
                0x00000000000002a8       0x28 /opt/compilers/mspgcc-4.7.3/bin/../lib/gcc/msp430/4.7.3/../../../../msp430/lib/mcpu-430x/mmpy-16/msr20/mc20/libc.a(printf.o)
 .debug_aranges
                0x00000000000002d0       0x28 /opt/compilers/mspgcc-4.7.3/bin/../lib/gcc/msp430/4.7.3/../../../../msp430/lib/mcpu-430x/mmpy-16/msr20/mc20/libc.a(vuprintf.o)
 .debug_aranges
                0x00000000000002f8       0x20 /opt/compilers/mspgcc-4.7.3/bin/../lib/gcc/msp430/4.7.3/../../../../msp430/lib/mcpu-430x/mmpy-16/msr20/mc20/libc.a(puts.o)
 .debug_aranges
                0x0000000000000318       0x30 /opt/compilers/mspgcc-4.7.3/bin/../lib/gcc/msp430/4.7.3/../../../../msp430/lib/mcpu-430x/mmpy-16/msr20/mc20/libc.a(rand.o)
 .debug_aranges
                0x0000000000000348       0x20 /opt/compilers/mspgcc-4.7.3/bin/../lib/gcc/msp430/4.7.3/../../../../msp430/lib/mcpu-430x/mmpy-16/msr20/mc20/libc.a(memcmp.o)
 .debug_aranges
                0x0000000000000368       0x20 /opt/compilers/mspgcc-4.7.3/bin/../lib/gcc/msp430/4.7.3/../../../../msp430/lib/mcpu-430x/mmpy-16/msr20/mc20/libc.a(memcpy.o)
 .debug_aranges
                0x0000000000000388       0x20 /opt/compilers/mspgcc-4.7.3/bin/../lib/gcc/msp430/4.7.3/../../../../msp430/lib/mcpu-430x/mmpy-16/msr20/mc20/libc.a(memmove.o)
 .debug_aranges
                0x00000000000003a8       0x20 /opt/compilers/mspgcc-4.7.3/bin/../lib/gcc/msp430/4.7.3/../../../../msp430/lib/mcpu-430x/mmpy-16/msr20/mc20/libc.a(memset.o)
 .debug_aranges
                0x00000000000003c8       0x20 /opt/compilers/mspgcc-4.7.3/bin/../lib/gcc/msp430/4.7.3/mcpu-430x/mmpy-16/msr20/mc20/libgcc.a(_mulsi3.o)
 .debug_aranges
                0x00000000000003e8       0x20 /opt/compilers/mspgcc-4.7.3/bin/../lib/gcc/msp430/4.7.3/mcpu-430x/mmpy-16/msr20/mc20/libgcc.a(_udivmod64.o)
 .debug_aranges
                0x0000000000000408       0x20 /opt/compilers/mspgcc-4.7.3/bin/../lib/gcc/msp430/4.7.3/mcpu-430x/mmpy-16/msr20/mc20/libcrt0.a(__watchdog_support.o)
 .debug_aranges
                0x0000000000000428       0x20 /opt/compilers/mspgcc-4.7.3/bin/../lib/gcc/msp430/4.7.3/mcpu-430x/mmpy-16/msr20/mc20/libcrt0.a(__init_stack.o)
 .debug_aranges
                0x0000000000000448       0x20 /opt/compilers/mspgcc-4.7.3/bin/../lib/gcc/msp430/4.7.3/mcpu-430x/mmpy-16/msr20/mc20/libcrt0.a(_copy_data.o)
 .debug_aranges
                0x0000000000000468       0x20 /opt/compilers/mspgcc-4.7.3/bin/../lib/gcc/msp430/4.7.3/mcpu-430x/mmpy-16/msr20/mc20/libcrt0.a(_clear_bss.o)
 .debug_aranges
                0x0000000000000488       0x20 /opt/compilers/mspgcc-4.7.3/bin/../lib/gcc/msp430/4.7.3/mcpu-430x/mmpy-16/msr20/mc20/libcrt0.a(_endless_loop__.o)
 .debug_aranges
                0x00000000000004a8       0x20 /opt/compilers/mspgcc-4.7.3/bin/../lib/gcc/msp430/4.7.3/mcpu-430x/mmpy-16/msr20/mc20/libcrt0.a(_unexpected_.o)

.debug_pubnames
 *(.debug_pubnames)

.debug_info     0x0000000000000000     0x4205
 *(.debug_info)
 .debug_info    0x0000000000000000       0xbf /opt/compilers/mspgcc-4.7.3/bin/../lib/gcc/msp430/4.7.3/mcpu-430x/mmpy-16/msr20/mc20/crt0ivtbl64.o
 .debug_info    0x00000000000000bf      0x311 /opt/compilers/mspgcc-4.7.3/bin/../lib/gcc/msp430/4.7.3/../../../../msp430/lib/mcpu-430x/mmpy-16/msr20/mc20/libm.a(ef_exp.o)
 .debug_info    0x00000000000003d0       0xbc /opt/compilers/mspgcc-4.7.3/bin/../lib/gcc/msp430/4.7.3/mcpu-430x/mmpy-16/msr20/mc20/libgcc.a(_udivmod16.o)
 .debug_info    0x000000000000048c       0xbc /opt/compilers/mspgcc-4.7.3/bin/../lib/gcc/msp430/4.7.3/mcpu-430x/mmpy-16/msr20/mc20/libgcc.a(_divmod16.o)
 .debug_info    0x0000000000000548       0xbc /opt/compilers/mspgcc-4.7.3/bin/../lib/gcc/msp430/4.7.3/mcpu-430x/mmpy-16/msr20/mc20/libgcc.a(_udivmod32.o)
 .debug_info    0x0000000000000604       0xbc /opt/compilers/mspgcc-4.7.3/bin/../lib/gcc/msp430/4.7.3/mcpu-430x/mmpy-16/msr20/mc20/libgcc.a(_divmod32.o)
 .debug_info    0x00000000000006c0       0xc2 /opt/compilers/mspgcc-4.7.3/bin/../lib/gcc/msp430/4.7.3/mcpu-430x/mmpy-16/msr20/mc20/libgcc.a(_fixunssfsi.o)
 .debug_info    0x0000000000000782      0x531 /opt/compilers/mspgcc-4.7.3/bin/../lib/gcc/msp430/4.7.3/mcpu-430x/mmpy-16/msr20/mc20/libgcc.a(_addsub_sf.o)
 .debug_info    0x0000000000000cb3      0x470 /opt/compilers/mspgcc-4.7.3/bin/../lib/gcc/msp430/4.7.3/mcpu-430x/mmpy-16/msr20/mc20/libgcc.a(_mul_sf.o)
 .debug_info    0x0000000000001123      0x3f7 /opt/compilers/mspgcc-4.7.3/bin/../lib/gcc/msp430/4.7.3/mcpu-430x/mmpy-16/msr20/mc20/libgcc.a(_div_sf.o)
 .debug_info    0x000000000000151a      0x30c /opt/compilers/mspgcc-4.7.3/bin/../lib/gcc/msp430/4.7.3/mcpu-430x/mmpy-16/msr20/mc20/libgcc.a(_gt_sf.o)
 .debug_info    0x0000000000001826      0x30c /opt/compilers/mspgcc-4.7.3/bin/../lib/gcc/msp430/4.7.3/mcpu-430x/mmpy-16/msr20/mc20/libgcc.a(_ge_sf.o)
 .debug_info    0x0000000000001b32      0x25d /opt/compilers/mspgcc-4.7.3/bin/../lib/gcc/msp430/4.7.3/mcpu-430x/mmpy-16/msr20/mc20/libgcc.a(_si_to_sf.o)
 .debug_info    0x0000000000001d8f      0x2d9 /opt/compilers/mspgcc-4.7.3/bin/../lib/gcc/msp430/4.7.3/mcpu-430x/mmpy-16/msr20/mc20/libgcc.a(_sf_to_si.o)
 .debug_info    0x0000000000002068      0x169 /opt/compilers/mspgcc-4.7.3/bin/../lib/gcc/msp430/4.7.3/mcpu-430x/mmpy-16/msr20/mc20/libgcc.a(_thenan_sf.o)
 .debug_info    0x00000000000021d1      0x26a /opt/compilers/mspgcc-4.7.3/bin/../lib/gcc/msp430/4.7.3/mcpu-430x/mmpy-16/msr20/mc20/libgcc.a(_usi_to_sf.o)
 .debug_info    0x000000000000243b      0x11d /opt/compilers/mspgcc-4.7.3/bin/../lib/gcc/msp430/4.7.3/mcpu-430x/mmpy-16/msr20/mc20/libgcc.a(_clzsi2.o)
 .debug_info    0x0000000000002558      0x2ce /opt/compilers/mspgcc-4.7.3/bin/../lib/gcc/msp430/4.7.3/mcpu-430x/mmpy-16/msr20/mc20/libgcc.a(_pack_sf.o)
 .debug_info    0x0000000000002826      0x256 /opt/compilers/mspgcc-4.7.3/bin/../lib/gcc/msp430/4.7.3/mcpu-430x/mmpy-16/msr20/mc20/libgcc.a(_unpack_sf.o)
 .debug_info    0x0000000000002a7c      0x1e9 /opt/compilers/mspgcc-4.7.3/bin/../lib/gcc/msp430/4.7.3/mcpu-430x/mmpy-16/msr20/mc20/libgcc.a(_fpcmp_parts_sf.o)
 .debug_info    0x0000000000002c65       0xc5 /opt/compilers/mspgcc-4.7.3/bin/../lib/gcc/msp430/4.7.3/mcpu-430x/mmpy-16/msr20/mc20/libgcc.a(_clz.o)
 .debug_info    0x0000000000002d2a      0x18d /opt/compilers/mspgcc-4.7.3/bin/../lib/gcc/msp430/4.7.3/../../../../msp430/lib/mcpu-430x/mmpy-16/msr20/mc20/libc.a(printf.o)
 .debug_info    0x0000000000002eb7      0x673 /opt/compilers/mspgcc-4.7.3/bin/../lib/gcc/msp430/4.7.3/../../../../msp430/lib/mcpu-430x/mmpy-16/msr20/mc20/libc.a(vuprintf.o)
 .debug_info    0x000000000000352a       0xe1 /opt/compilers/mspgcc-4.7.3/bin/../lib/gcc/msp430/4.7.3/../../../../msp430/lib/mcpu-430x/mmpy-16/msr20/mc20/libc.a(puts.o)
 .debug_info    0x000000000000360b      0x172 /opt/compilers/mspgcc-4.7.3/bin/../lib/gcc/msp430/4.7.3/../../../../msp430/lib/mcpu-430x/mmpy-16/msr20/mc20/libc.a(rand.o)
 .debug_info    0x000000000000377d       0xff /opt/compilers/mspgcc-4.7.3/bin/../lib/gcc/msp430/4.7.3/../../../../msp430/lib/mcpu-430x/mmpy-16/msr20/mc20/libc.a(memcmp.o)
 .debug_info    0x000000000000387c      0x144 /opt/compilers/mspgcc-4.7.3/bin/../lib/gcc/msp430/4.7.3/../../../../msp430/lib/mcpu-430x/mmpy-16/msr20/mc20/libc.a(memcpy.o)
 .debug_info    0x00000000000039c0      0x144 /opt/compilers/mspgcc-4.7.3/bin/../lib/gcc/msp430/4.7.3/../../../../msp430/lib/mcpu-430x/mmpy-16/msr20/mc20/libc.a(memmove.o)
 .debug_info    0x0000000000003b04      0x12d /opt/compilers/mspgcc-4.7.3/bin/../lib/gcc/msp430/4.7.3/../../../../msp430/lib/mcpu-430x/mmpy-16/msr20/mc20/libc.a(memset.o)
 .debug_info    0x0000000000003c31       0xbc /opt/compilers/mspgcc-4.7.3/bin/../lib/gcc/msp430/4.7.3/mcpu-430x/mmpy-16/msr20/mc20/libgcc.a(_mulsi3.o)
 .debug_info    0x0000000000003ced       0xbc /opt/compilers/mspgcc-4.7.3/bin/../lib/gcc/msp430/4.7.3/mcpu-430x/mmpy-16/msr20/mc20/libgcc.a(_udivmod64.o)
 .debug_info    0x0000000000003da9       0xba /opt/compilers/mspgcc-4.7.3/bin/../lib/gcc/msp430/4.7.3/mcpu-430x/mmpy-16/msr20/mc20/libcrt0.a(__watchdog_support.o)
 .debug_info    0x0000000000003e63       0xba /opt/compilers/mspgcc-4.7.3/bin/../lib/gcc/msp430/4.7.3/mcpu-430x/mmpy-16/msr20/mc20/libcrt0.a(__init_stack.o)
 .debug_info    0x0000000000003f1d       0xba /opt/compilers/mspgcc-4.7.3/bin/../lib/gcc/msp430/4.7.3/mcpu-430x/mmpy-16/msr20/mc20/libcrt0.a(_copy_data.o)
 .debug_info    0x0000000000003fd7       0xba /opt/compilers/mspgcc-4.7.3/bin/../lib/gcc/msp430/4.7.3/mcpu-430x/mmpy-16/msr20/mc20/libcrt0.a(_clear_bss.o)
 .debug_info    0x0000000000004091       0xba /opt/compilers/mspgcc-4.7.3/bin/../lib/gcc/msp430/4.7.3/mcpu-430x/mmpy-16/msr20/mc20/libcrt0.a(_endless_loop__.o)
 .debug_info    0x000000000000414b       0xba /opt/compilers/mspgcc-4.7.3/bin/../lib/gcc/msp430/4.7.3/mcpu-430x/mmpy-16/msr20/mc20/libcrt0.a(_unexpected_.o)
 *(.gnu.linkonce.wi.*)

.debug_abbrev   0x0000000000000000     0x1eaf
 *(.debug_abbrev)
 .debug_abbrev  0x0000000000000000       0x14 /opt/compilers/mspgcc-4.7.3/bin/../lib/gcc/msp430/4.7.3/mcpu-430x/mmpy-16/msr20/mc20/crt0ivtbl64.o
 .debug_abbrev  0x0000000000000014      0x136 /opt/compilers/mspgcc-4.7.3/bin/../lib/gcc/msp430/4.7.3/../../../../msp430/lib/mcpu-430x/mmpy-16/msr20/mc20/libm.a(ef_exp.o)
 .debug_abbrev  0x000000000000014a       0x14 /opt/compilers/mspgcc-4.7.3/bin/../lib/gcc/msp430/4.7.3/mcpu-430x/mmpy-16/msr20/mc20/libgcc.a(_udivmod16.o)
 .debug_abbrev  0x000000000000015e       0x14 /opt/compilers/mspgcc-4.7.3/bin/../lib/gcc/msp430/4.7.3/mcpu-430x/mmpy-16/msr20/mc20/libgcc.a(_divmod16.o)
 .debug_abbrev  0x0000000000000172       0x14 /opt/compilers/mspgcc-4.7.3/bin/../lib/gcc/msp430/4.7.3/mcpu-430x/mmpy-16/msr20/mc20/libgcc.a(_udivmod32.o)
 .debug_abbrev  0x0000000000000186       0x14 /opt/compilers/mspgcc-4.7.3/bin/../lib/gcc/msp430/4.7.3/mcpu-430x/mmpy-16/msr20/mc20/libgcc.a(_divmod32.o)
 .debug_abbrev  0x000000000000019a       0x62 /opt/compilers/mspgcc-4.7.3/bin/../lib/gcc/msp430/4.7.3/mcpu-430x/mmpy-16/msr20/mc20/libgcc.a(_fixunssfsi.o)
 .debug_abbrev  0x00000000000001fc      0x204 /opt/compilers/mspgcc-4.7.3/bin/../lib/gcc/msp430/4.7.3/mcpu-430x/mmpy-16/msr20/mc20/libgcc.a(_addsub_sf.o)
 .debug_abbrev  0x0000000000000400      0x247 /opt/compilers/mspgcc-4.7.3/bin/../lib/gcc/msp430/4.7.3/mcpu-430x/mmpy-16/msr20/mc20/libgcc.a(_mul_sf.o)
 .debug_abbrev  0x0000000000000647      0x230 /opt/compilers/mspgcc-4.7.3/bin/../lib/gcc/msp430/4.7.3/mcpu-430x/mmpy-16/msr20/mc20/libgcc.a(_div_sf.o)
 .debug_abbrev  0x0000000000000877      0x1a7 /opt/compilers/mspgcc-4.7.3/bin/../lib/gcc/msp430/4.7.3/mcpu-430x/mmpy-16/msr20/mc20/libgcc.a(_gt_sf.o)
 .debug_abbrev  0x0000000000000a1e      0x1a7 /opt/compilers/mspgcc-4.7.3/bin/../lib/gcc/msp430/4.7.3/mcpu-430x/mmpy-16/msr20/mc20/libgcc.a(_ge_sf.o)
 .debug_abbrev  0x0000000000000bc5      0x1a0 /opt/compilers/mspgcc-4.7.3/bin/../lib/gcc/msp430/4.7.3/mcpu-430x/mmpy-16/msr20/mc20/libgcc.a(_si_to_sf.o)
 .debug_abbrev  0x0000000000000d65      0x196 /opt/compilers/mspgcc-4.7.3/bin/../lib/gcc/msp430/4.7.3/mcpu-430x/mmpy-16/msr20/mc20/libgcc.a(_sf_to_si.o)
 .debug_abbrev  0x0000000000000efb       0xc5 /opt/compilers/mspgcc-4.7.3/bin/../lib/gcc/msp430/4.7.3/mcpu-430x/mmpy-16/msr20/mc20/libgcc.a(_thenan_sf.o)
 .debug_abbrev  0x0000000000000fc0      0x1c3 /opt/compilers/mspgcc-4.7.3/bin/../lib/gcc/msp430/4.7.3/mcpu-430x/mmpy-16/msr20/mc20/libgcc.a(_usi_to_sf.o)
 .debug_abbrev  0x0000000000001183       0xb1 /opt/compilers/mspgcc-4.7.3/bin/../lib/gcc/msp430/4.7.3/mcpu-430x/mmpy-16/msr20/mc20/libgcc.a(_clzsi2.o)
 .debug_abbrev  0x0000000000001234      0x199 /opt/compilers/mspgcc-4.7.3/bin/../lib/gcc/msp430/4.7.3/mcpu-430x/mmpy-16/msr20/mc20/libgcc.a(_pack_sf.o)
 .debug_abbrev  0x00000000000013cd      0x152 /opt/compilers/mspgcc-4.7.3/bin/../lib/gcc/msp430/4.7.3/mcpu-430x/mmpy-16/msr20/mc20/libgcc.a(_unpack_sf.o)
 .debug_abbrev  0x000000000000151f      0x110 /opt/compilers/mspgcc-4.7.3/bin/../lib/gcc/msp430/4.7.3/mcpu-430x/mmpy-16/msr20/mc20/libgcc.a(_fpcmp_parts_sf.o)
 .debug_abbrev  0x000000000000162f       0x75 /opt/compilers/mspgcc-4.7.3/bin/../lib/gcc/msp430/4.7.3/mcpu-430x/mmpy-16/msr20/mc20/libgcc.a(_clz.o)
 .debug_abbrev  0x00000000000016a4       0xfa /opt/compilers/mspgcc-4.7.3/bin/../lib/gcc/msp430/4.7.3/../../../../msp430/lib/mcpu-430x/mmpy-16/msr20/mc20/libc.a(printf.o)
 .debug_abbrev  0x000000000000179e      0x23e /opt/compilers/mspgcc-4.7.3/bin/../lib/gcc/msp430/4.7.3/../../../../msp430/lib/mcpu-430x/mmpy-16/msr20/mc20/libc.a(vuprintf.o)
 .debug_abbrev  0x00000000000019dc       0xa3 /opt/compilers/mspgcc-4.7.3/bin/../lib/gcc/msp430/4.7.3/../../../../msp430/lib/mcpu-430x/mmpy-16/msr20/mc20/libc.a(puts.o)
 .debug_abbrev  0x0000000000001a7f       0xfb /opt/compilers/mspgcc-4.7.3/bin/../lib/gcc/msp430/4.7.3/../../../../msp430/lib/mcpu-430x/mmpy-16/msr20/mc20/libc.a(rand.o)
 .debug_abbrev  0x0000000000001b7a       0x9e /opt/compilers/mspgcc-4.7.3/bin/../lib/gcc/msp430/4.7.3/../../../../msp430/lib/mcpu-430x/mmpy-16/msr20/mc20/libc.a(memcmp.o)
 .debug_abbrev  0x0000000000001c18       0xab /opt/compilers/mspgcc-4.7.3/bin/../lib/gcc/msp430/4.7.3/../../../../msp430/lib/mcpu-430x/mmpy-16/msr20/mc20/libc.a(memcpy.o)
 .debug_abbrev  0x0000000000001cc3       0xab /opt/compilers/mspgcc-4.7.3/bin/../lib/gcc/msp430/4.7.3/../../../../msp430/lib/mcpu-430x/mmpy-16/msr20/mc20/libc.a(memmove.o)
 .debug_abbrev  0x0000000000001d6e       0xa1 /opt/compilers/mspgcc-4.7.3/bin/../lib/gcc/msp430/4.7.3/../../../../msp430/lib/mcpu-430x/mmpy-16/msr20/mc20/libc.a(memset.o)
 .debug_abbrev  0x0000000000001e0f       0x14 /opt/compilers/mspgcc-4.7.3/bin/../lib/gcc/msp430/4.7.3/mcpu-430x/mmpy-16/msr20/mc20/libgcc.a(_mulsi3.o)
 .debug_abbrev  0x0000000000001e23       0x14 /opt/compilers/mspgcc-4.7.3/bin/../lib/gcc/msp430/4.7.3/mcpu-430x/mmpy-16/msr20/mc20/libgcc.a(_udivmod64.o)
 .debug_abbrev  0x0000000000001e37       0x14 /opt/compilers/mspgcc-4.7.3/bin/../lib/gcc/msp430/4.7.3/mcpu-430x/mmpy-16/msr20/mc20/libcrt0.a(__watchdog_support.o)
 .debug_abbrev  0x0000000000001e4b       0x14 /opt/compilers/mspgcc-4.7.3/bin/../lib/gcc/msp430/4.7.3/mcpu-430x/mmpy-16/msr20/mc20/libcrt0.a(__init_stack.o)
 .debug_abbrev  0x0000000000001e5f       0x14 /opt/compilers/mspgcc-4.7.3/bin/../lib/gcc/msp430/4.7.3/mcpu-430x/mmpy-16/msr20/mc20/libcrt0.a(_copy_data.o)
 .debug_abbrev  0x0000000000001e73       0x14 /opt/compilers/mspgcc-4.7.3/bin/../lib/gcc/msp430/4.7.3/mcpu-430x/mmpy-16/msr20/mc20/libcrt0.a(_clear_bss.o)
 .debug_abbrev  0x0000000000001e87       0x14 /opt/compilers/mspgcc-4.7.3/bin/../lib/gcc/msp430/4.7.3/mcpu-430x/mmpy-16/msr20/mc20/libcrt0.a(_endless_loop__.o)
 .debug_abbrev  0x0000000000001e9b       0x14 /opt/compilers/mspgcc-4.7.3/bin/../lib/gcc/msp430/4.7.3/mcpu-430x/mmpy-16/msr20/mc20/libcrt0.a(_unexpected_.o)

.debug_line     0x0000000000000000     0x1992
 *(.debug_line)
 .debug_line    0x0000000000000000       0x6f /opt/compilers/mspgcc-4.7.3/bin/../lib/gcc/msp430/4.7.3/mcpu-430x/mmpy-16/msr20/mc20/crt0ivtbl64.o
 .debug_line    0x000000000000006f       0xc0 /opt/compilers/mspgcc-4.7.3/bin/../lib/gcc/msp430/4.7.3/../../../../msp430/lib/mcpu-430x/mmpy-16/msr20/mc20/libm.a(ef_exp.o)
 .debug_line    0x000000000000012f       0x7b /opt/compilers/mspgcc-4.7.3/bin/../lib/gcc/msp430/4.7.3/mcpu-430x/mmpy-16/msr20/mc20/libgcc.a(_udivmod16.o)
 .debug_line    0x00000000000001aa       0x86 /opt/compilers/mspgcc-4.7.3/bin/../lib/gcc/msp430/4.7.3/mcpu-430x/mmpy-16/msr20/mc20/libgcc.a(_divmod16.o)
 .debug_line    0x0000000000000230       0x86 /opt/compilers/mspgcc-4.7.3/bin/../lib/gcc/msp430/4.7.3/mcpu-430x/mmpy-16/msr20/mc20/libgcc.a(_udivmod32.o)
 .debug_line    0x00000000000002b6       0x8f /opt/compilers/mspgcc-4.7.3/bin/../lib/gcc/msp430/4.7.3/mcpu-430x/mmpy-16/msr20/mc20/libgcc.a(_divmod32.o)
 .debug_line    0x0000000000000345       0x73 /opt/compilers/mspgcc-4.7.3/bin/../lib/gcc/msp430/4.7.3/mcpu-430x/mmpy-16/msr20/mc20/libgcc.a(_fixunssfsi.o)
 .debug_line    0x00000000000003b8      0x106 /opt/compilers/mspgcc-4.7.3/bin/../lib/gcc/msp430/4.7.3/mcpu-430x/mmpy-16/msr20/mc20/libgcc.a(_addsub_sf.o)
 .debug_line    0x00000000000004be       0xf2 /opt/compilers/mspgcc-4.7.3/bin/../lib/gcc/msp430/4.7.3/mcpu-430x/mmpy-16/msr20/mc20/libgcc.a(_mul_sf.o)
 .debug_line    0x00000000000005b0       0xc1 /opt/compilers/mspgcc-4.7.3/bin/../lib/gcc/msp430/4.7.3/mcpu-430x/mmpy-16/msr20/mc20/libgcc.a(_div_sf.o)
 .debug_line    0x0000000000000671       0x7a /opt/compilers/mspgcc-4.7.3/bin/../lib/gcc/msp430/4.7.3/mcpu-430x/mmpy-16/msr20/mc20/libgcc.a(_gt_sf.o)
 .debug_line    0x00000000000006eb       0x7a /opt/compilers/mspgcc-4.7.3/bin/../lib/gcc/msp430/4.7.3/mcpu-430x/mmpy-16/msr20/mc20/libgcc.a(_ge_sf.o)
 .debug_line    0x0000000000000765       0x92 /opt/compilers/mspgcc-4.7.3/bin/../lib/gcc/msp430/4.7.3/mcpu-430x/mmpy-16/msr20/mc20/libgcc.a(_si_to_sf.o)
 .debug_line    0x00000000000007f7       0x8e /opt/compilers/mspgcc-4.7.3/bin/../lib/gcc/msp430/4.7.3/mcpu-430x/mmpy-16/msr20/mc20/libgcc.a(_sf_to_si.o)
 .debug_line    0x0000000000000885       0xa2 /opt/compilers/mspgcc-4.7.3/bin/../lib/gcc/msp430/4.7.3/mcpu-430x/mmpy-16/msr20/mc20/libgcc.a(_thenan_sf.o)
 .debug_line    0x0000000000000927       0x93 /opt/compilers/mspgcc-4.7.3/bin/../lib/gcc/msp430/4.7.3/mcpu-430x/mmpy-16/msr20/mc20/libgcc.a(_usi_to_sf.o)
 .debug_line    0x00000000000009ba       0x9d /opt/compilers/mspgcc-4.7.3/bin/../lib/gcc/msp430/4.7.3/mcpu-430x/mmpy-16/msr20/mc20/libgcc.a(_clzsi2.o)
 .debug_line    0x0000000000000a57       0xc2 /opt/compilers/mspgcc-4.7.3/bin/../lib/gcc/msp430/4.7.3/mcpu-430x/mmpy-16/msr20/mc20/libgcc.a(_pack_sf.o)
 .debug_line    0x0000000000000b19       0xa4 /opt/compilers/mspgcc-4.7.3/bin/../lib/gcc/msp430/4.7.3/mcpu-430x/mmpy-16/msr20/mc20/libgcc.a(_unpack_sf.o)
 .debug_line    0x0000000000000bbd       0xba /opt/compilers/mspgcc-4.7.3/bin/../lib/gcc/msp430/4.7.3/mcpu-430x/mmpy-16/msr20/mc20/libgcc.a(_fpcmp_parts_sf.o)
 .debug_line    0x0000000000000c77       0xa4 /opt/compilers/mspgcc-4.7.3/bin/../lib/gcc/msp430/4.7.3/mcpu-430x/mmpy-16/msr20/mc20/libgcc.a(_clz.o)
 .debug_line    0x0000000000000d1b       0xaf /opt/compilers/mspgcc-4.7.3/bin/../lib/gcc/msp430/4.7.3/../../../../msp430/lib/mcpu-430x/mmpy-16/msr20/mc20/libc.a(printf.o)
 .debug_line    0x0000000000000dca      0x35f /opt/compilers/mspgcc-4.7.3/bin/../lib/gcc/msp430/4.7.3/../../../../msp430/lib/mcpu-430x/mmpy-16/msr20/mc20/libc.a(vuprintf.o)
 .debug_line    0x0000000000001129       0x67 /opt/compilers/mspgcc-4.7.3/bin/../lib/gcc/msp430/4.7.3/../../../../msp430/lib/mcpu-430x/mmpy-16/msr20/mc20/libc.a(puts.o)
 .debug_line    0x0000000000001190       0x6e /opt/compilers/mspgcc-4.7.3/bin/../lib/gcc/msp430/4.7.3/../../../../msp430/lib/mcpu-430x/mmpy-16/msr20/mc20/libc.a(rand.o)
 .debug_line    0x00000000000011fe       0x93 /opt/compilers/mspgcc-4.7.3/bin/../lib/gcc/msp430/4.7.3/../../../../msp430/lib/mcpu-430x/mmpy-16/msr20/mc20/libc.a(memcmp.o)
 .debug_line    0x0000000000001291      0x11c /opt/compilers/mspgcc-4.7.3/bin/../lib/gcc/msp430/4.7.3/../../../../msp430/lib/mcpu-430x/mmpy-16/msr20/mc20/libc.a(memcpy.o)
 .debug_line    0x00000000000013ad      0x11b /opt/compilers/mspgcc-4.7.3/bin/../lib/gcc/msp430/4.7.3/../../../../msp430/lib/mcpu-430x/mmpy-16/msr20/mc20/libc.a(memmove.o)
 .debug_line    0x00000000000014c8       0xf6 /opt/compilers/mspgcc-4.7.3/bin/../lib/gcc/msp430/4.7.3/../../../../msp430/lib/mcpu-430x/mmpy-16/msr20/mc20/libc.a(memset.o)
 .debug_line    0x00000000000015be       0x7f /opt/compilers/mspgcc-4.7.3/bin/../lib/gcc/msp430/4.7.3/mcpu-430x/mmpy-16/msr20/mc20/libgcc.a(_mulsi3.o)
 .debug_line    0x000000000000163d       0xc4 /opt/compilers/mspgcc-4.7.3/bin/../lib/gcc/msp430/4.7.3/mcpu-430x/mmpy-16/msr20/mc20/libgcc.a(_udivmod64.o)
 .debug_line    0x0000000000001701       0x6d /opt/compilers/mspgcc-4.7.3/bin/../lib/gcc/msp430/4.7.3/mcpu-430x/mmpy-16/msr20/mc20/libcrt0.a(__watchdog_support.o)
 .debug_line    0x000000000000176e       0x6b /opt/compilers/mspgcc-4.7.3/bin/../lib/gcc/msp430/4.7.3/mcpu-430x/mmpy-16/msr20/mc20/libcrt0.a(__init_stack.o)
 .debug_line    0x00000000000017d9       0x71 /opt/compilers/mspgcc-4.7.3/bin/../lib/gcc/msp430/4.7.3/mcpu-430x/mmpy-16/msr20/mc20/libcrt0.a(_copy_data.o)
 .debug_line    0x000000000000184a       0x71 /opt/compilers/mspgcc-4.7.3/bin/../lib/gcc/msp430/4.7.3/mcpu-430x/mmpy-16/msr20/mc20/libcrt0.a(_clear_bss.o)
 .debug_line    0x00000000000018bb       0x6c /opt/compilers/mspgcc-4.7.3/bin/../lib/gcc/msp430/4.7.3/mcpu-430x/mmpy-16/msr20/mc20/libcrt0.a(_endless_loop__.o)
 .debug_line    0x0000000000001927       0x6b /opt/compilers/mspgcc-4.7.3/bin/../lib/gcc/msp430/4.7.3/mcpu-430x/mmpy-16/msr20/mc20/libcrt0.a(_unexpected_.o)

.debug_frame    0x0000000000000000      0x4e4
 *(.debug_frame)
 .debug_frame   0x0000000000000000       0x50 /opt/compilers/mspgcc-4.7.3/bin/../lib/gcc/msp430/4.7.3/../../../../msp430/lib/mcpu-430x/mmpy-16/msr20/mc20/libm.a(ef_exp.o)
 .debug_frame   0x0000000000000050       0x2c /opt/compilers/mspgcc-4.7.3/bin/../lib/gcc/msp430/4.7.3/mcpu-430x/mmpy-16/msr20/mc20/libgcc.a(_fixunssfsi.o)
 .debug_frame   0x000000000000007c       0x68 /opt/compilers/mspgcc-4.7.3/bin/../lib/gcc/msp430/4.7.3/mcpu-430x/mmpy-16/msr20/mc20/libgcc.a(_addsub_sf.o)
 .debug_frame   0x00000000000000e4       0x40 /opt/compilers/mspgcc-4.7.3/bin/../lib/gcc/msp430/4.7.3/mcpu-430x/mmpy-16/msr20/mc20/libgcc.a(_mul_sf.o)
 .debug_frame   0x0000000000000124       0x38 /opt/compilers/mspgcc-4.7.3/bin/../lib/gcc/msp430/4.7.3/mcpu-430x/mmpy-16/msr20/mc20/libgcc.a(_div_sf.o)
 .debug_frame   0x000000000000015c       0x28 /opt/compilers/mspgcc-4.7.3/bin/../lib/gcc/msp430/4.7.3/mcpu-430x/mmpy-16/msr20/mc20/libgcc.a(_gt_sf.o)
 .debug_frame   0x0000000000000184       0x28 /opt/compilers/mspgcc-4.7.3/bin/../lib/gcc/msp430/4.7.3/mcpu-430x/mmpy-16/msr20/mc20/libgcc.a(_ge_sf.o)
 .debug_frame   0x00000000000001ac       0x30 /opt/compilers/mspgcc-4.7.3/bin/../lib/gcc/msp430/4.7.3/mcpu-430x/mmpy-16/msr20/mc20/libgcc.a(_si_to_sf.o)
 .debug_frame   0x00000000000001dc       0x28 /opt/compilers/mspgcc-4.7.3/bin/../lib/gcc/msp430/4.7.3/mcpu-430x/mmpy-16/msr20/mc20/libgcc.a(_sf_to_si.o)
 .debug_frame   0x0000000000000204       0x34 /opt/compilers/mspgcc-4.7.3/bin/../lib/gcc/msp430/4.7.3/mcpu-430x/mmpy-16/msr20/mc20/libgcc.a(_usi_to_sf.o)
 .debug_frame   0x0000000000000238       0x30 /opt/compilers/mspgcc-4.7.3/bin/../lib/gcc/msp430/4.7.3/mcpu-430x/mmpy-16/msr20/mc20/libgcc.a(_clzsi2.o)
 .debug_frame   0x0000000000000268       0x30 /opt/compilers/mspgcc-4.7.3/bin/../lib/gcc/msp430/4.7.3/mcpu-430x/mmpy-16/msr20/mc20/libgcc.a(_pack_sf.o)
 .debug_frame   0x0000000000000298       0x30 /opt/compilers/mspgcc-4.7.3/bin/../lib/gcc/msp430/4.7.3/mcpu-430x/mmpy-16/msr20/mc20/libgcc.a(_unpack_sf.o)
 .debug_frame   0x00000000000002c8       0x2c /opt/compilers/mspgcc-4.7.3/bin/../lib/gcc/msp430/4.7.3/mcpu-430x/mmpy-16/msr20/mc20/libgcc.a(_fpcmp_parts_sf.o)
 .debug_frame   0x00000000000002f4       0x34 /opt/compilers/mspgcc-4.7.3/bin/../lib/gcc/msp430/4.7.3/../../../../msp430/lib/mcpu-430x/mmpy-16/msr20/mc20/libc.a(printf.o)
 .debug_frame   0x0000000000000328       0x88 /opt/compilers/mspgcc-4.7.3/bin/../lib/gcc/msp430/4.7.3/../../../../msp430/lib/mcpu-430x/mmpy-16/msr20/mc20/libc.a(vuprintf.o)
 .debug_frame   0x00000000000003b0       0x2c /opt/compilers/mspgcc-4.7.3/bin/../lib/gcc/msp430/4.7.3/../../../../msp430/lib/mcpu-430x/mmpy-16/msr20/mc20/libc.a(puts.o)
 .debug_frame   0x00000000000003dc       0x4c /opt/compilers/mspgcc-4.7.3/bin/../lib/gcc/msp430/4.7.3/../../../../msp430/lib/mcpu-430x/mmpy-16/msr20/mc20/libc.a(rand.o)
 .debug_frame   0x0000000000000428       0x2c /opt/compilers/mspgcc-4.7.3/bin/../lib/gcc/msp430/4.7.3/../../../../msp430/lib/mcpu-430x/mmpy-16/msr20/mc20/libc.a(memcmp.o)
 .debug_frame   0x0000000000000454       0x30 /opt/compilers/mspgcc-4.7.3/bin/../lib/gcc/msp430/4.7.3/../../../../msp430/lib/mcpu-430x/mmpy-16/msr20/mc20/libc.a(memcpy.o)
 .debug_frame   0x0000000000000484       0x30 /opt/compilers/mspgcc-4.7.3/bin/../lib/gcc/msp430/4.7.3/../../../../msp430/lib/mcpu-430x/mmpy-16/msr20/mc20/libc.a(memmove.o)
 .debug_frame   0x00000000000004b4       0x30 /opt/compilers/mspgcc-4.7.3/bin/../lib/gcc/msp430/4.7.3/../../../../msp430/lib/mcpu-430x/mmpy-16/msr20/mc20/libc.a(memset.o)

.debug_str      0x0000000000000000      0x7f9
 *(.debug_str)
 .debug_str     0x0000000000000000      0x131 /opt/compilers/mspgcc-4.7.3/bin/../lib/gcc/msp430/4.7.3/../../../../msp430/lib/mcpu-430x/mmpy-16/msr20/mc20/libm.a(ef_exp.o)
                                        0x16f (size before relaxing)
 .debug_str     0x0000000000000131       0xc1 /opt/compilers/mspgcc-4.7.3/bin/../lib/gcc/msp430/4.7.3/mcpu-430x/mmpy-16/msr20/mc20/libgcc.a(_fixunssfsi.o)
                                        0x157 (size before relaxing)
 .debug_str     0x00000000000001f2      0x170 /opt/compilers/mspgcc-4.7.3/bin/../lib/gcc/msp430/4.7.3/mcpu-430x/mmpy-16/msr20/mc20/libgcc.a(_addsub_sf.o)
                                        0x286 (size before relaxing)
 .debug_str     0x0000000000000362       0x27 /opt/compilers/mspgcc-4.7.3/bin/../lib/gcc/msp430/4.7.3/mcpu-430x/mmpy-16/msr20/mc20/libgcc.a(_mul_sf.o)
                                        0x23f (size before relaxing)
 .debug_str     0x0000000000000389       0x35 /opt/compilers/mspgcc-4.7.3/bin/../lib/gcc/msp430/4.7.3/mcpu-430x/mmpy-16/msr20/mc20/libgcc.a(_div_sf.o)
                                        0x248 (size before relaxing)
 .debug_str     0x00000000000003be       0x20 /opt/compilers/mspgcc-4.7.3/bin/../lib/gcc/msp430/4.7.3/mcpu-430x/mmpy-16/msr20/mc20/libgcc.a(_gt_sf.o)
                                        0x215 (size before relaxing)
 .debug_str     0x00000000000003de        0x8 /opt/compilers/mspgcc-4.7.3/bin/../lib/gcc/msp430/4.7.3/mcpu-430x/mmpy-16/msr20/mc20/libgcc.a(_ge_sf.o)
                                        0x215 (size before relaxing)
 .debug_str     0x00000000000003e6       0x27 /opt/compilers/mspgcc-4.7.3/bin/../lib/gcc/msp430/4.7.3/mcpu-430x/mmpy-16/msr20/mc20/libgcc.a(_si_to_sf.o)
                                        0x1f1 (size before relaxing)
 .debug_str     0x000000000000040d        0xa /opt/compilers/mspgcc-4.7.3/bin/../lib/gcc/msp430/4.7.3/mcpu-430x/mmpy-16/msr20/mc20/libgcc.a(_sf_to_si.o)
                                        0x20d (size before relaxing)
 .debug_str     0x0000000000000417       0x57 /opt/compilers/mspgcc-4.7.3/bin/../lib/gcc/msp430/4.7.3/mcpu-430x/mmpy-16/msr20/mc20/libgcc.a(_thenan_sf.o)
                                        0x1fb (size before relaxing)
 .debug_str     0x000000000000046e       0x14 /opt/compilers/mspgcc-4.7.3/bin/../lib/gcc/msp430/4.7.3/mcpu-430x/mmpy-16/msr20/mc20/libgcc.a(_usi_to_sf.o)
                                        0x1ed (size before relaxing)
 .debug_str     0x0000000000000482       0x17 /opt/compilers/mspgcc-4.7.3/bin/../lib/gcc/msp430/4.7.3/mcpu-430x/mmpy-16/msr20/mc20/libgcc.a(_clzsi2.o)
                                        0x16c (size before relaxing)
 .debug_str     0x0000000000000499        0x7 /opt/compilers/mspgcc-4.7.3/bin/../lib/gcc/msp430/4.7.3/mcpu-430x/mmpy-16/msr20/mc20/libgcc.a(_pack_sf.o)
                                        0x201 (size before relaxing)
 .debug_str     0x0000000000000000      0x1e3 /opt/compilers/mspgcc-4.7.3/bin/../lib/gcc/msp430/4.7.3/mcpu-430x/mmpy-16/msr20/mc20/libgcc.a(_unpack_sf.o)
 .debug_str     0x0000000000000000      0x1c7 /opt/compilers/mspgcc-4.7.3/bin/../lib/gcc/msp430/4.7.3/mcpu-430x/mmpy-16/msr20/mc20/libgcc.a(_fpcmp_parts_sf.o)
 .debug_str     0x0000000000000000      0x1a6 /opt/compilers/mspgcc-4.7.3/bin/../lib/gcc/msp430/4.7.3/mcpu-430x/mmpy-16/msr20/mc20/libgcc.a(_clz.o)
 .debug_str     0x00000000000004a0       0x5a /opt/compilers/mspgcc-4.7.3/bin/../lib/gcc/msp430/4.7.3/../../../../msp430/lib/mcpu-430x/mmpy-16/msr20/mc20/libc.a(printf.o)
                                        0x149 (size before relaxing)
 .debug_str     0x00000000000004fa      0x219 /opt/compilers/mspgcc-4.7.3/bin/../lib/gcc/msp430/4.7.3/../../../../msp430/lib/mcpu-430x/mmpy-16/msr20/mc20/libc.a(vuprintf.o)
                                        0x3af (size before relaxing)
 .debug_str     0x0000000000000713       0x1d /opt/compilers/mspgcc-4.7.3/bin/../lib/gcc/msp430/4.7.3/../../../../msp430/lib/mcpu-430x/mmpy-16/msr20/mc20/libc.a(puts.o)
                                        0x10e (size before relaxing)
 .debug_str     0x0000000000000730       0x2f /opt/compilers/mspgcc-4.7.3/bin/../lib/gcc/msp430/4.7.3/../../../../msp430/lib/mcpu-430x/mmpy-16/msr20/mc20/libc.a(rand.o)
                                        0x125 (size before relaxing)
 .debug_str     0x000000000000075f       0x20 /opt/compilers/mspgcc-4.7.3/bin/../lib/gcc/msp430/4.7.3/../../../../msp430/lib/mcpu-430x/mmpy-16/msr20/mc20/libc.a(memcmp.o)
                                        0x111 (size before relaxing)
 .debug_str     0x000000000000077f       0x39 /opt/compilers/mspgcc-4.7.3/bin/../lib/gcc/msp430/4.7.3/../../../../msp430/lib/mcpu-430x/mmpy-16/msr20/mc20/libc.a(memcpy.o)
                                        0x13f (size before relaxing)
 .debug_str     0x00000000000007b8       0x1b /opt/compilers/mspgcc-4.7.3/bin/../lib/gcc/msp430/4.7.3/../../../../msp430/lib/mcpu-430x/mmpy-16/msr20/mc20/libc.a(memmove.o)
                                        0x141 (size before relaxing)
 .debug_str     0x00000000000007d3       0x26 /opt/compilers/mspgcc-4.7.3/bin/../lib/gcc/msp430/4.7.3/../../../../msp430/lib/mcpu-430x/mmpy-16/msr20/mc20/libc.a(memset.o)
                                        0x13d (size before relaxing)

.debug_loc      0x0000000000000000     0x2bfe
 *(.debug_loc)
 .debug_loc     0x0000000000000000      0x3cb /opt/compilers/mspgcc-4.7.3/bin/../lib/gcc/msp430/4.7.3/../../../../msp430/lib/mcpu-430x/mmpy-16/msr20/mc20/libm.a(ef_exp.o)
 .debug_loc     0x00000000000003cb       0x48 /opt/compilers/mspgcc-4.7.3/bin/../lib/gcc/msp430/4.7.3/mcpu-430x/mmpy-16/msr20/mc20/libgcc.a(_fixunssfsi.o)
 .debug_loc     0x0000000000000413      0x5ed /opt/compilers/mspgcc-4.7.3/bin/../lib/gcc/msp430/4.7.3/mcpu-430x/mmpy-16/msr20/mc20/libgcc.a(_addsub_sf.o)
 .debug_loc     0x0000000000000a00      0x289 /opt/compilers/mspgcc-4.7.3/bin/../lib/gcc/msp430/4.7.3/mcpu-430x/mmpy-16/msr20/mc20/libgcc.a(_mul_sf.o)
 .debug_loc     0x0000000000000c89      0x1b5 /opt/compilers/mspgcc-4.7.3/bin/../lib/gcc/msp430/4.7.3/mcpu-430x/mmpy-16/msr20/mc20/libgcc.a(_div_sf.o)
 .debug_loc     0x0000000000000e3e       0x7c /opt/compilers/mspgcc-4.7.3/bin/../lib/gcc/msp430/4.7.3/mcpu-430x/mmpy-16/msr20/mc20/libgcc.a(_gt_sf.o)
 .debug_loc     0x0000000000000eba       0x7c /opt/compilers/mspgcc-4.7.3/bin/../lib/gcc/msp430/4.7.3/mcpu-430x/mmpy-16/msr20/mc20/libgcc.a(_ge_sf.o)
 .debug_loc     0x0000000000000f36      0x145 /opt/compilers/mspgcc-4.7.3/bin/../lib/gcc/msp430/4.7.3/mcpu-430x/mmpy-16/msr20/mc20/libgcc.a(_si_to_sf.o)
 .debug_loc     0x000000000000107b       0x88 /opt/compilers/mspgcc-4.7.3/bin/../lib/gcc/msp430/4.7.3/mcpu-430x/mmpy-16/msr20/mc20/libgcc.a(_sf_to_si.o)
 .debug_loc     0x0000000000001103      0x13f /opt/compilers/mspgcc-4.7.3/bin/../lib/gcc/msp430/4.7.3/mcpu-430x/mmpy-16/msr20/mc20/libgcc.a(_usi_to_sf.o)
 .debug_loc     0x0000000000001242       0x9e /opt/compilers/mspgcc-4.7.3/bin/../lib/gcc/msp430/4.7.3/mcpu-430x/mmpy-16/msr20/mc20/libgcc.a(_clzsi2.o)
 .debug_loc     0x00000000000012e0      0x289 /opt/compilers/mspgcc-4.7.3/bin/../lib/gcc/msp430/4.7.3/mcpu-430x/mmpy-16/msr20/mc20/libgcc.a(_pack_sf.o)
 .debug_loc     0x0000000000001569      0x12c /opt/compilers/mspgcc-4.7.3/bin/../lib/gcc/msp430/4.7.3/mcpu-430x/mmpy-16/msr20/mc20/libgcc.a(_unpack_sf.o)
 .debug_loc     0x0000000000001695      0x111 /opt/compilers/mspgcc-4.7.3/bin/../lib/gcc/msp430/4.7.3/mcpu-430x/mmpy-16/msr20/mc20/libgcc.a(_fpcmp_parts_sf.o)
 .debug_loc     0x00000000000017a6       0x78 /opt/compilers/mspgcc-4.7.3/bin/../lib/gcc/msp430/4.7.3/../../../../msp430/lib/mcpu-430x/mmpy-16/msr20/mc20/libc.a(printf.o)
 .debug_loc     0x000000000000181e      0xbfe /opt/compilers/mspgcc-4.7.3/bin/../lib/gcc/msp430/4.7.3/../../../../msp430/lib/mcpu-430x/mmpy-16/msr20/mc20/libc.a(vuprintf.o)
 .debug_loc     0x000000000000241c       0x3e /opt/compilers/mspgcc-4.7.3/bin/../lib/gcc/msp430/4.7.3/../../../../msp430/lib/mcpu-430x/mmpy-16/msr20/mc20/libc.a(puts.o)
 .debug_loc     0x000000000000245a       0x78 /opt/compilers/mspgcc-4.7.3/bin/../lib/gcc/msp430/4.7.3/../../../../msp430/lib/mcpu-430x/mmpy-16/msr20/mc20/libc.a(rand.o)
 .debug_loc     0x00000000000024d2       0x6d /opt/compilers/mspgcc-4.7.3/bin/../lib/gcc/msp430/4.7.3/../../../../msp430/lib/mcpu-430x/mmpy-16/msr20/mc20/libc.a(memcmp.o)
 .debug_loc     0x000000000000253f      0x2c3 /opt/compilers/mspgcc-4.7.3/bin/../lib/gcc/msp430/4.7.3/../../../../msp430/lib/mcpu-430x/mmpy-16/msr20/mc20/libc.a(memcpy.o)
 .debug_loc     0x0000000000002802      0x2c3 /opt/compilers/mspgcc-4.7.3/bin/../lib/gcc/msp430/4.7.3/../../../../msp430/lib/mcpu-430x/mmpy-16/msr20/mc20/libc.a(memmove.o)
 .debug_loc     0x0000000000002ac5      0x139 /opt/compilers/mspgcc-4.7.3/bin/../lib/gcc/msp430/4.7.3/../../../../msp430/lib/mcpu-430x/mmpy-16/msr20/mc20/libc.a(memset.o)

.debug_macinfo
 *(.debug_macinfo)

.debug_pubtypes
 *(.debug_pubtypes)

.debug_ranges   0x0000000000000000      0x2e0
 *(.debug_ranges)
 .debug_ranges  0x0000000000000000       0x18 /opt/compilers/mspgcc-4.7.3/bin/../lib/gcc/msp430/4.7.3/../../../../msp430/lib/mcpu-430x/mmpy-16/msr20/mc20/libm.a(ef_exp.o)
 .debug_ranges  0x0000000000000018       0x10 /opt/compilers/mspgcc-4.7.3/bin/../lib/gcc/msp430/4.7.3/mcpu-430x/mmpy-16/msr20/mc20/libgcc.a(_fixunssfsi.o)
 .debug_ranges  0x0000000000000028       0x48 /opt/compilers/mspgcc-4.7.3/bin/../lib/gcc/msp430/4.7.3/mcpu-430x/mmpy-16/msr20/mc20/libgcc.a(_addsub_sf.o)
 .debug_ranges  0x0000000000000070       0x68 /opt/compilers/mspgcc-4.7.3/bin/../lib/gcc/msp430/4.7.3/mcpu-430x/mmpy-16/msr20/mc20/libgcc.a(_mul_sf.o)
 .debug_ranges  0x00000000000000d8       0x60 /opt/compilers/mspgcc-4.7.3/bin/../lib/gcc/msp430/4.7.3/mcpu-430x/mmpy-16/msr20/mc20/libgcc.a(_div_sf.o)
 .debug_ranges  0x0000000000000138       0x10 /opt/compilers/mspgcc-4.7.3/bin/../lib/gcc/msp430/4.7.3/mcpu-430x/mmpy-16/msr20/mc20/libgcc.a(_gt_sf.o)
 .debug_ranges  0x0000000000000148       0x10 /opt/compilers/mspgcc-4.7.3/bin/../lib/gcc/msp430/4.7.3/mcpu-430x/mmpy-16/msr20/mc20/libgcc.a(_ge_sf.o)
 .debug_ranges  0x0000000000000158       0x10 /opt/compilers/mspgcc-4.7.3/bin/../lib/gcc/msp430/4.7.3/mcpu-430x/mmpy-16/msr20/mc20/libgcc.a(_si_to_sf.o)
 .debug_ranges  0x0000000000000168       0x10 /opt/compilers/mspgcc-4.7.3/bin/../lib/gcc/msp430/4.7.3/mcpu-430x/mmpy-16/msr20/mc20/libgcc.a(_sf_to_si.o)
 .debug_ranges  0x0000000000000178       0x40 /opt/compilers/mspgcc-4.7.3/bin/../lib/gcc/msp430/4.7.3/mcpu-430x/mmpy-16/msr20/mc20/libgcc.a(_usi_to_sf.o)
 .debug_ranges  0x00000000000001b8       0x28 /opt/compilers/mspgcc-4.7.3/bin/../lib/gcc/msp430/4.7.3/mcpu-430x/mmpy-16/msr20/mc20/libgcc.a(_clzsi2.o)
 .debug_ranges  0x00000000000001e0       0x10 /opt/compilers/mspgcc-4.7.3/bin/../lib/gcc/msp430/4.7.3/mcpu-430x/mmpy-16/msr20/mc20/libgcc.a(_pack_sf.o)
 .debug_ranges  0x00000000000001f0       0x10 /opt/compilers/mspgcc-4.7.3/bin/../lib/gcc/msp430/4.7.3/mcpu-430x/mmpy-16/msr20/mc20/libgcc.a(_unpack_sf.o)
 .debug_ranges  0x0000000000000200       0x10 /opt/compilers/mspgcc-4.7.3/bin/../lib/gcc/msp430/4.7.3/mcpu-430x/mmpy-16/msr20/mc20/libgcc.a(_fpcmp_parts_sf.o)
 .debug_ranges  0x0000000000000210       0x18 /opt/compilers/mspgcc-4.7.3/bin/../lib/gcc/msp430/4.7.3/../../../../msp430/lib/mcpu-430x/mmpy-16/msr20/mc20/libc.a(printf.o)
 .debug_ranges  0x0000000000000228       0x48 /opt/compilers/mspgcc-4.7.3/bin/../lib/gcc/msp430/4.7.3/../../../../msp430/lib/mcpu-430x/mmpy-16/msr20/mc20/libc.a(vuprintf.o)
 .debug_ranges  0x0000000000000270       0x10 /opt/compilers/mspgcc-4.7.3/bin/../lib/gcc/msp430/4.7.3/../../../../msp430/lib/mcpu-430x/mmpy-16/msr20/mc20/libc.a(puts.o)
 .debug_ranges  0x0000000000000280       0x20 /opt/compilers/mspgcc-4.7.3/bin/../lib/gcc/msp430/4.7.3/../../../../msp430/lib/mcpu-430x/mmpy-16/msr20/mc20/libc.a(rand.o)
 .debug_ranges  0x00000000000002a0       0x10 /opt/compilers/mspgcc-4.7.3/bin/../lib/gcc/msp430/4.7.3/../../../../msp430/lib/mcpu-430x/mmpy-16/msr20/mc20/libc.a(memcmp.o)
 .debug_ranges  0x00000000000002b0       0x10 /opt/compilers/mspgcc-4.7.3/bin/../lib/gcc/msp430/4.7.3/../../../../msp430/lib/mcpu-430x/mmpy-16/msr20/mc20/libc.a(memcpy.o)
 .debug_ranges  0x00000000000002c0       0x10 /opt/compilers/mspgcc-4.7.3/bin/../lib/gcc/msp430/4.7.3/../../../../msp430/lib/mcpu-430x/mmpy-16/msr20/mc20/libc.a(memmove.o)
 .debug_ranges  0x00000000000002d0       0x10 /opt/compilers/mspgcc-4.7.3/bin/../lib/gcc/msp430/4.7.3/../../../../msp430/lib/mcpu-430x/mmpy-16/msr20/mc20/libc.a(memset.o)
                0x0000000000005c00                PROVIDE (__stack, (ORIGIN (ram) + 0x4000))
                0x00000000000090a2                __data_start_rom = _etext
                0x000000000000a316                __data_end_rom = (_etext + SIZEOF (.data))
OUTPUT(udp-server.wismote elf32-msp430)

.gnu.attributes
                0x0000000000000000       0x11
 .gnu.attributes
                0x0000000000000000       0x11 /opt/compilers/mspgcc-4.7.3/bin/../lib/gcc/msp430/4.7.3/mcpu-430x/mmpy-16/msr20/mc20/crt0ivtbl64.o
 .gnu.attributes
                0x0000000000000011       0x11 udp-server.co
 .gnu.attributes
                0x0000000000000022       0x11 obj_wismote/contiki-wismote-main.o
 .gnu.attributes
                0x0000000000000033       0x11 contiki-wismote.a(contiki-wismote)
 .gnu.attributes
                0x0000000000000044       0x11 contiki-wismote.a(button-sensor.o)
 .gnu.attributes
                0x0000000000000055       0x11 contiki-wismote.a(xmem.o)
 .gnu.attributes
                0x0000000000000066       0x11 contiki-wismote.a(node-id.o)
 .gnu.attributes
                0x0000000000000077       0x11 contiki-wismote.a(sensors.o)
 .gnu.attributes
                0x0000000000000088       0x11 contiki-wismote.a(cc2520.o)
 .gnu.attributes
                0x0000000000000099       0x11 contiki-wismote.a(cc2520-arch.o)
 .gnu.attributes
                0x00000000000000aa       0x11 contiki-wismote.a(uart1.o)
 .gnu.attributes
                0x00000000000000bb       0x11 contiki-wismote.a(uart1-putchar.o)
 .gnu.attributes
                0x00000000000000cc       0x11 contiki-wismote.a(msp430.o)
 .gnu.attributes
                0x00000000000000dd       0x11 contiki-wismote.a(clock.o)
 .gnu.attributes
                0x00000000000000ee       0x11 contiki-wismote.a(leds.o)
 .gnu.attributes
                0x00000000000000ff       0x11 contiki-wismote.a(leds-arch.o)
 .gnu.attributes
                0x0000000000000110       0x11 contiki-wismote.a(watchdog.o)
 .gnu.attributes
                0x0000000000000121       0x11 contiki-wismote.a(rtimer-arch.o)
 .gnu.attributes
                0x0000000000000132       0x11 contiki-wismote.a(autostart.o)
 .gnu.attributes
                0x0000000000000143       0x11 contiki-wismote.a(battery_kinetic)
 .gnu.attributes
                0x0000000000000154       0x11 contiki-wismote.a(compower.o)
 .gnu.attributes
                0x0000000000000165       0x11 contiki-wismote.a(ctimer.o)
 .gnu.attributes
                0x0000000000000176       0x11 contiki-wismote.a(energest.o)
 .gnu.attributes
                0x0000000000000187       0x11 contiki-wismote.a(etimer.o)
 .gnu.attributes
                0x0000000000000198       0x11 contiki-wismote.a(instance_pool.o)
 .gnu.attributes
                0x00000000000001a9       0x11 contiki-wismote.a(process.o)
 .gnu.attributes
                0x00000000000001ba       0x11 contiki-wismote.a(rtimer.o)
 .gnu.attributes
                0x00000000000001cb       0x11 contiki-wismote.a(timer.o)
 .gnu.attributes
                0x00000000000001dc       0x11 contiki-wismote.a(list.o)
 .gnu.attributes
                0x00000000000001ed       0x11 contiki-wismote.a(random.o)
 .gnu.attributes
                0x00000000000001fe       0x11 contiki-wismote.a(sicslowpan.o)
 .gnu.attributes
                0x000000000000020f       0x11 contiki-wismote.a(uip6.o)
 .gnu.attributes
                0x0000000000000220       0x11 contiki-wismote.a(uip-ds6.o)
 .gnu.attributes
                0x0000000000000231       0x11 contiki-wismote.a(uip-ds6-nbr.o)
 .gnu.attributes
                0x0000000000000242       0x11 contiki-wismote.a(uip-ds6-route.o)
 .gnu.attributes
                0x0000000000000253       0x11 contiki-wismote.a(uip-icmp6.o)
 .gnu.attributes
                0x0000000000000264       0x11 contiki-wismote.a(uip-nd6.o)
 .gnu.attributes
                0x0000000000000275       0x11 contiki-wismote.a(tcpip.o)
 .gnu.attributes
                0x0000000000000286       0x11 contiki-wismote.a(uip-debug.o)
 .gnu.attributes
                0x0000000000000297       0x11 contiki-wismote.a(rpl.o)
 .gnu.attributes
                0x00000000000002a8       0x11 contiki-wismote.a(rpl-dag.o)
 .gnu.attributes
                0x00000000000002b9       0x11 contiki-wismote.a(rpl-ext-header.)
 .gnu.attributes
                0x00000000000002ca       0x11 contiki-wismote.a(rpl-icmp6.o)
 .gnu.attributes
                0x00000000000002db       0x11 contiki-wismote.a(rpl-mrhof.o)
 .gnu.attributes
                0x00000000000002ec       0x11 contiki-wismote.a(rpl-of0.o)
 .gnu.attributes
                0x00000000000002fd       0x11 contiki-wismote.a(rpl-timers.o)
 .gnu.attributes
                0x000000000000030e       0x11 contiki-wismote.a(linkaddr.o)
 .gnu.attributes
                0x000000000000031f       0x11 contiki-wismote.a(link-stats.o)
 .gnu.attributes
                0x0000000000000330       0x11 contiki-wismote.a(nbr-table.o)
 .gnu.attributes
                0x0000000000000341       0x11 contiki-wismote.a(net-debug.o)
 .gnu.attributes
                0x0000000000000352       0x11 contiki-wismote.a(packetbuf.o)
 .gnu.attributes
                0x0000000000000363       0x11 contiki-wismote.a(queuebuf.o)
 .gnu.attributes
                0x0000000000000374       0x11 contiki-wismote.a(csma.o)
 .gnu.attributes
                0x0000000000000385       0x11 contiki-wismote.a(framer-802154.o)
 .gnu.attributes
                0x0000000000000396       0x11 contiki-wismote.a(mac.o)
 .gnu.attributes
                0x00000000000003a7       0x11 contiki-wismote.a(contikimac.o)
 .gnu.attributes
                0x00000000000003b8       0x11 contiki-wismote.a(nullsec.o)
 .gnu.attributes
                0x00000000000003c9       0x11 contiki-wismote.a(spi.o)
 .gnu.attributes
                0x00000000000003da       0x11 contiki-wismote.a(stimer.o)
 .gnu.attributes
                0x00000000000003eb       0x11 contiki-wismote.a(memb.o)
 .gnu.attributes
                0x00000000000003fc       0x11 contiki-wismote.a(rpl-nbr-policy.)
 .gnu.attributes
                0x000000000000040d       0x11 contiki-wismote.a(frame802154.o)
 .gnu.attributes
                0x000000000000041e       0x11 contiki-wismote.a(mac-sequence.o)
 .gnu.attributes
                0x000000000000042f       0x11 /opt/compilers/mspgcc-4.7.3/bin/../lib/gcc/msp430/4.7.3/../../../../msp430/lib/mcpu-430x/mmpy-16/msr20/mc20/libm.a(ef_exp.o)
 .gnu.attributes
                0x0000000000000440       0x11 /opt/compilers/mspgcc-4.7.3/bin/../lib/gcc/msp430/4.7.3/mcpu-430x/mmpy-16/msr20/mc20/libgcc.a(_udivmod16.o)
 .gnu.attributes
                0x0000000000000451       0x11 /opt/compilers/mspgcc-4.7.3/bin/../lib/gcc/msp430/4.7.3/mcpu-430x/mmpy-16/msr20/mc20/libgcc.a(_divmod16.o)
 .gnu.attributes
                0x0000000000000462       0x11 /opt/compilers/mspgcc-4.7.3/bin/../lib/gcc/msp430/4.7.3/mcpu-430x/mmpy-16/msr20/mc20/libgcc.a(_udivmod32.o)
 .gnu.attributes
                0x0000000000000473       0x11 /opt/compilers/mspgcc-4.7.3/bin/../lib/gcc/msp430/4.7.3/mcpu-430x/mmpy-16/msr20/mc20/libgcc.a(_divmod32.o)
 .gnu.attributes
                0x0000000000000484       0x11 /opt/compilers/mspgcc-4.7.3/bin/../lib/gcc/msp430/4.7.3/mcpu-430x/mmpy-16/msr20/mc20/libgcc.a(_fixunssfsi.o)
 .gnu.attributes
                0x0000000000000495       0x11 /opt/compilers/mspgcc-4.7.3/bin/../lib/gcc/msp430/4.7.3/mcpu-430x/mmpy-16/msr20/mc20/libgcc.a(_addsub_sf.o)
 .gnu.attributes
                0x00000000000004a6       0x11 /opt/compilers/mspgcc-4.7.3/bin/../lib/gcc/msp430/4.7.3/mcpu-430x/mmpy-16/msr20/mc20/libgcc.a(_mul_sf.o)
 .gnu.attributes
                0x00000000000004b7       0x11 /opt/compilers/mspgcc-4.7.3/bin/../lib/gcc/msp430/4.7.3/mcpu-430x/mmpy-16/msr20/mc20/libgcc.a(_div_sf.o)
 .gnu.attributes
                0x00000000000004c8       0x11 /opt/compilers/mspgcc-4.7.3/bin/../lib/gcc/msp430/4.7.3/mcpu-430x/mmpy-16/msr20/mc20/libgcc.a(_gt_sf.o)
 .gnu.attributes
                0x00000000000004d9       0x11 /opt/compilers/mspgcc-4.7.3/bin/../lib/gcc/msp430/4.7.3/mcpu-430x/mmpy-16/msr20/mc20/libgcc.a(_ge_sf.o)
 .gnu.attributes
                0x00000000000004ea       0x11 /opt/compilers/mspgcc-4.7.3/bin/../lib/gcc/msp430/4.7.3/mcpu-430x/mmpy-16/msr20/mc20/libgcc.a(_si_to_sf.o)
 .gnu.attributes
                0x00000000000004fb       0x11 /opt/compilers/mspgcc-4.7.3/bin/../lib/gcc/msp430/4.7.3/mcpu-430x/mmpy-16/msr20/mc20/libgcc.a(_sf_to_si.o)
 .gnu.attributes
                0x000000000000050c       0x11 /opt/compilers/mspgcc-4.7.3/bin/../lib/gcc/msp430/4.7.3/mcpu-430x/mmpy-16/msr20/mc20/libgcc.a(_thenan_sf.o)
 .gnu.attributes
                0x000000000000051d       0x11 /opt/compilers/mspgcc-4.7.3/bin/../lib/gcc/msp430/4.7.3/mcpu-430x/mmpy-16/msr20/mc20/libgcc.a(_usi_to_sf.o)
 .gnu.attributes
                0x000000000000052e       0x11 /opt/compilers/mspgcc-4.7.3/bin/../lib/gcc/msp430/4.7.3/mcpu-430x/mmpy-16/msr20/mc20/libgcc.a(_clzsi2.o)
 .gnu.attributes
                0x000000000000053f       0x11 /opt/compilers/mspgcc-4.7.3/bin/../lib/gcc/msp430/4.7.3/mcpu-430x/mmpy-16/msr20/mc20/libgcc.a(_pack_sf.o)
 .gnu.attributes
                0x0000000000000550       0x11 /opt/compilers/mspgcc-4.7.3/bin/../lib/gcc/msp430/4.7.3/mcpu-430x/mmpy-16/msr20/mc20/libgcc.a(_unpack_sf.o)
 .gnu.attributes
                0x0000000000000561       0x11 /opt/compilers/mspgcc-4.7.3/bin/../lib/gcc/msp430/4.7.3/mcpu-430x/mmpy-16/msr20/mc20/libgcc.a(_fpcmp_parts_sf.o)
 .gnu.attributes
                0x0000000000000572       0x11 /opt/compilers/mspgcc-4.7.3/bin/../lib/gcc/msp430/4.7.3/mcpu-430x/mmpy-16/msr20/mc20/libgcc.a(_clz.o)
 .gnu.attributes
                0x0000000000000583       0x11 /opt/compilers/mspgcc-4.7.3/bin/../lib/gcc/msp430/4.7.3/../../../../msp430/lib/mcpu-430x/mmpy-16/msr20/mc20/libc.a(printf.o)
 .gnu.attributes
                0x0000000000000594       0x11 /opt/compilers/mspgcc-4.7.3/bin/../lib/gcc/msp430/4.7.3/../../../../msp430/lib/mcpu-430x/mmpy-16/msr20/mc20/libc.a(vuprintf.o)
 .gnu.attributes
                0x00000000000005a5       0x11 /opt/compilers/mspgcc-4.7.3/bin/../lib/gcc/msp430/4.7.3/../../../../msp430/lib/mcpu-430x/mmpy-16/msr20/mc20/libc.a(puts.o)
 .gnu.attributes
                0x00000000000005b6       0x11 /opt/compilers/mspgcc-4.7.3/bin/../lib/gcc/msp430/4.7.3/../../../../msp430/lib/mcpu-430x/mmpy-16/msr20/mc20/libc.a(rand.o)
 .gnu.attributes
                0x00000000000005c7       0x11 /opt/compilers/mspgcc-4.7.3/bin/../lib/gcc/msp430/4.7.3/../../../../msp430/lib/mcpu-430x/mmpy-16/msr20/mc20/libc.a(memcmp.o)
 .gnu.attributes
                0x00000000000005d8       0x11 /opt/compilers/mspgcc-4.7.3/bin/../lib/gcc/msp430/4.7.3/../../../../msp430/lib/mcpu-430x/mmpy-16/msr20/mc20/libc.a(memcpy.o)
 .gnu.attributes
                0x00000000000005e9       0x11 /opt/compilers/mspgcc-4.7.3/bin/../lib/gcc/msp430/4.7.3/../../../../msp430/lib/mcpu-430x/mmpy-16/msr20/mc20/libc.a(memmove.o)
 .gnu.attributes
                0x00000000000005fa       0x11 /opt/compilers/mspgcc-4.7.3/bin/../lib/gcc/msp430/4.7.3/../../../../msp430/lib/mcpu-430x/mmpy-16/msr20/mc20/libc.a(memset.o)
 .gnu.attributes
                0x000000000000060b       0x11 /opt/compilers/mspgcc-4.7.3/bin/../lib/gcc/msp430/4.7.3/mcpu-430x/mmpy-16/msr20/mc20/libgcc.a(_mulsi3.o)
 .gnu.attributes
                0x000000000000061c       0x11 /opt/compilers/mspgcc-4.7.3/bin/../lib/gcc/msp430/4.7.3/mcpu-430x/mmpy-16/msr20/mc20/libgcc.a(_udivmod64.o)
 .gnu.attributes
                0x000000000000062d       0x11 /opt/compilers/mspgcc-4.7.3/bin/../lib/gcc/msp430/4.7.3/mcpu-430x/mmpy-16/msr20/mc20/libcrt0.a(_reset_vector__.o)
 .gnu.attributes
                0x000000000000063e       0x11 /opt/compilers/mspgcc-4.7.3/bin/../lib/gcc/msp430/4.7.3/mcpu-430x/mmpy-16/msr20/mc20/libcrt0.a(__watchdog_support.o)
 .gnu.attributes
                0x000000000000064f       0x11 /opt/compilers/mspgcc-4.7.3/bin/../lib/gcc/msp430/4.7.3/mcpu-430x/mmpy-16/msr20/mc20/libcrt0.a(__init_stack.o)
 .gnu.attributes
                0x0000000000000660       0x11 /opt/compilers/mspgcc-4.7.3/bin/../lib/gcc/msp430/4.7.3/mcpu-430x/mmpy-16/msr20/mc20/libcrt0.a(__low_level_init.o)
 .gnu.attributes
                0x0000000000000671       0x11 /opt/compilers/mspgcc-4.7.3/bin/../lib/gcc/msp430/4.7.3/mcpu-430x/mmpy-16/msr20/mc20/libcrt0.a(_copy_data.o)
 .gnu.attributes
                0x0000000000000682       0x11 /opt/compilers/mspgcc-4.7.3/bin/../lib/gcc/msp430/4.7.3/mcpu-430x/mmpy-16/msr20/mc20/libcrt0.a(_clear_bss.o)
 .gnu.attributes
                0x0000000000000693       0x11 /opt/compilers/mspgcc-4.7.3/bin/../lib/gcc/msp430/4.7.3/mcpu-430x/mmpy-16/msr20/mc20/libcrt0.a(__stop_progExec__.o)
 .gnu.attributes
                0x00000000000006a4       0x11 /opt/compilers/mspgcc-4.7.3/bin/../lib/gcc/msp430/4.7.3/mcpu-430x/mmpy-16/msr20/mc20/libcrt0.a(_endless_loop__.o)
 .gnu.attributes
                0x00000000000006b5       0x11 /opt/compilers/mspgcc-4.7.3/bin/../lib/gcc/msp430/4.7.3/mcpu-430x/mmpy-16/msr20/mc20/libcrt0.a(_unexpected_.o)
